; generated by Component: ARM Compiler 5.05 update 1 (build 106) Tool: ArmCC [4d0efa]
; commandline ArmCC [--c99 --list -c --asm --interleave -o.\objects\main.o --asm_dir=.\Listings\ --list_dir=.\Listings\ --depend=.\objects\main.d --cpu=Cortex-M3 --apcs=interwork -IC:\SOFT_project\Mk\Project_Synhron_OKR12\Prog_1986VE92\Foch2\RTE -IC:\SOFT_project\Mk\Project_Synhron_OKR12\Prog_1986VE92\Foch2\RTE\Device\MDR1986BE92 -IC:\Keil_v5\ARM\PACK\Keil\MDR1986BExx\1.4\Config -IC:\Keil_v5\ARM\PACK\Keil\MDR1986BExx\1.4\Libraries\CMSIS\CM3\CoreSupport -IC:\Keil_v5\ARM\PACK\Keil\MDR1986BExx\1.4\Libraries\CMSIS\CM3\DeviceSupport\MDR32F9Qx\inc -IC:\Keil_v5\ARM\PACK\Keil\MDR1986BExx\1.4\Libraries\MDR32F9Qx_StdPeriph_Driver\inc -IC:\Keil_v5\ARM\CMSIS\Include -D__UVISION_VERSION=513 -D_RTE_ -DUSE_MDR32F9Q2_Rev1 -W --enum_is_int --signed_chars main.c]
                          THUMB

                          AREA ||.text||, CODE, READONLY, ALIGN=2

                          REQUIRE _printf_percent
                          REQUIRE _printf_d
                          REQUIRE _printf_int_dec
                          REQUIRE _printf_x
                          REQUIRE _printf_longlong_hex
                  Uart1PinCfg PROC
;;;363    //------------------------------------
;;;364    void Uart1PinCfg(void)
000000  b570              PUSH     {r4-r6,lr}
;;;365    {
;;;366      /* Fill PortInit structure*/
;;;367        PortInit.PORT_PULL_UP = PORT_PULL_UP_OFF;
000002  4cfd              LDR      r4,|L1.1016|
000004  2000              MOVS     r0,#0
;;;368        PortInit.PORT_PULL_DOWN = PORT_PULL_DOWN_OFF;
;;;369        PortInit.PORT_PD_SHM = PORT_PD_SHM_OFF;
;;;370        PortInit.PORT_PD = PORT_PD_DRIVER;
;;;371        PortInit.PORT_GFEN = PORT_GFEN_OFF;
;;;372        PortInit.PORT_FUNC = PORT_FUNC_ALTER;
000006  2102              MOVS     r1,#2
000008  60a0              STR      r0,[r4,#8]            ;368  ; PortInit
00000a  60e0              STR      r0,[r4,#0xc]          ;369  ; PortInit
00000c  6120              STR      r0,[r4,#0x10]         ;370  ; PortInit
00000e  6160              STR      r0,[r4,#0x14]  ; PortInit
000010  e9c40106          STRD     r0,r1,[r4,#0x18]
;;;373        PortInit.PORT_SPEED = PORT_SPEED_MAXFAST;
;;;374        PortInit.PORT_MODE = PORT_MODE_DIGITAL;
;;;375        /* Configure PORTB pins 6 (UART1_RX) as input */
;;;376        PortInit.PORT_OE = PORT_OE_IN;
;;;377        PortInit.PORT_Pin = PORT_Pin_6;
000014  6060              STR      r0,[r4,#4]  ; PortInit
000016  2103              MOVS     r1,#3                 ;373
000018  2501              MOVS     r5,#1                 ;374
00001a  e9c41508          STRD     r1,r5,[r4,#0x20]
00001e  2040              MOVS     r0,#0x40
;;;378        PORT_Init(MDR_PORTB, &PortInit);
000020  4ef6              LDR      r6,|L1.1020|
000022  8020              STRH     r0,[r4,#0]            ;377
000024  4621              MOV      r1,r4
000026  4630              MOV      r0,r6
000028  f7fffffe          BL       PORT_Init
;;;379        /* Configure PORTB pins 5 (UART1_TX) as output */
;;;380        PortInit.PORT_OE = PORT_OE_OUT;
;;;381        PortInit.PORT_Pin = PORT_Pin_5;
00002c  2020              MOVS     r0,#0x20
00002e  6065              STR      r5,[r4,#4]  ; PortInit
000030  8020              STRH     r0,[r4,#0]
;;;382        PORT_Init(MDR_PORTB, &PortInit);  
000032  4621              MOV      r1,r4
000034  4630              MOV      r0,r6
000036  e8bd4070          POP      {r4-r6,lr}
00003a  f7ffbffe          B.W      PORT_Init
;;;383    }
;;;384    
                          ENDP

                  Uart2PinCfg PROC
;;;385    void Uart2PinCfg(void)
00003e  e92d41f0          PUSH     {r4-r8,lr}
;;;386    {
;;;387    	
;;;388    	  /* Fill PortInit structure*/
;;;389        PortInit.PORT_PULL_UP = PORT_PULL_UP_OFF;
000042  4ced              LDR      r4,|L1.1016|
000044  2000              MOVS     r0,#0
;;;390        PortInit.PORT_PULL_DOWN = PORT_PULL_DOWN_OFF;
;;;391        PortInit.PORT_PD_SHM = PORT_PD_SHM_OFF;
;;;392        PortInit.PORT_PD = PORT_PD_DRIVER;
;;;393        PortInit.PORT_GFEN = PORT_GFEN_OFF;
;;;394        PortInit.PORT_FUNC = PORT_FUNC_ALTER;
000046  2602              MOVS     r6,#2
000048  60a0              STR      r0,[r4,#8]            ;390  ; PortInit
00004a  60e0              STR      r0,[r4,#0xc]          ;391  ; PortInit
00004c  6120              STR      r0,[r4,#0x10]         ;392  ; PortInit
;;;395        PortInit.PORT_SPEED = PORT_SPEED_MAXFAST;
;;;396        PortInit.PORT_MODE = PORT_MODE_DIGITAL;
00004e  6160              STR      r0,[r4,#0x14]  ; PortInit
000050  e9c40606          STRD     r0,r6,[r4,#0x18]
;;;397        /* Configure PORTD pins 0 (UART2_RX) as input */
;;;398        PortInit.PORT_OE = PORT_OE_IN;
000054  6060              STR      r0,[r4,#4]  ; PortInit
000056  2103              MOVS     r1,#3                 ;395
000058  2501              MOVS     r5,#1                 ;396
00005a  e9c41508          STRD     r1,r5,[r4,#0x20]
;;;399        PortInit.PORT_Pin = PORT_Pin_0;
;;;400        PORT_Init(MDR_PORTD, &PortInit);
00005e  4fe8              LDR      r7,|L1.1024|
000060  8025              STRH     r5,[r4,#0]            ;399
000062  4621              MOV      r1,r4
000064  4638              MOV      r0,r7
000066  f7fffffe          BL       PORT_Init
;;;401        /* Configure PORTD pins 1 (UART2_TX) as output */
;;;402        PortInit.PORT_OE = PORT_OE_OUT;
;;;403        PortInit.PORT_Pin = PORT_Pin_1;
00006a  6065              STR      r5,[r4,#4]  ; PortInit
00006c  8026              STRH     r6,[r4,#0]
;;;404        PORT_Init(MDR_PORTD, &PortInit); 
00006e  4621              MOV      r1,r4
000070  4638              MOV      r0,r7
000072  e8bd41f0          POP      {r4-r8,lr}
000076  f7ffbffe          B.W      PORT_Init
;;;405    
;;;406    
;;;407    }
;;;408    void MltPinCfg (void)
                          ENDP

                  MltPinCfg PROC
00007a  e92d41f0          PUSH     {r4-r8,lr}
;;;409    {
;;;410    
;;;411    
;;;412      /* Fill PortInit structure*/
;;;413        PortInit.PORT_PULL_UP   = PORT_PULL_UP_ON;
00007e  4cde              LDR      r4,|L1.1016|
000080  2601              MOVS     r6,#1
;;;414        PortInit.PORT_PULL_DOWN = PORT_PULL_DOWN_OFF;
000082  2500              MOVS     r5,#0
000084  e9c46502          STRD     r6,r5,[r4,#8]
;;;415        PortInit.PORT_PD_SHM    = PORT_PD_SHM_OFF;
;;;416        PortInit.PORT_PD        = PORT_PD_DRIVER;
000088  6125              STR      r5,[r4,#0x10]  ; PortInit
;;;417        PortInit.PORT_GFEN      = PORT_GFEN_OFF;
00008a  6165              STR      r5,[r4,#0x14]  ; PortInit
;;;418    	
;;;419      /* Configure PORTA pins 2,5 for mlt out data  */
;;;420      PortInit.PORT_Pin   = (PORT_Pin_2 |  PORT_Pin_5);
00008c  2024              MOVS     r0,#0x24
00008e  61a5              STR      r5,[r4,#0x18]  ; PortInit
000090  8020              STRH     r0,[r4,#0]
;;;421      PortInit.PORT_OE    = PORT_OE_OUT;
;;;422      PortInit.PORT_FUNC  = PORT_FUNC_PORT;
;;;423      PortInit.PORT_MODE  = PORT_MODE_DIGITAL;
000092  6066              STR      r6,[r4,#4]  ; PortInit
;;;424      PortInit.PORT_SPEED = PORT_SPEED_MAXFAST;
000094  2703              MOVS     r7,#3
;;;425      PORT_Init(MDR_PORTA, &PortInit);
000096  6266              STR      r6,[r4,#0x24]  ; PortInit
000098  f8df8368          LDR      r8,|L1.1028|
00009c  e9c45707          STRD     r5,r7,[r4,#0x1c]
0000a0  4621              MOV      r1,r4
0000a2  4640              MOV      r0,r8
0000a4  f7fffffe          BL       PORT_Init
;;;426     /* Configure PORTA pins 3 for mlt input  */
;;;427      PortInit.PORT_Pin   = (PORT_Pin_3);
0000a8  2008              MOVS     r0,#8
0000aa  8020              STRH     r0,[r4,#0]
;;;428      PortInit.PORT_OE    = PORT_OE_IN;
;;;429      PortInit.PORT_FUNC  = PORT_FUNC_PORT;
;;;430      PortInit.PORT_MODE  = PORT_MODE_DIGITAL;
;;;431      PortInit.PORT_SPEED = PORT_SPEED_MAXFAST;
;;;432      PORT_Init(MDR_PORTA, &PortInit);
0000ac  6266              STR      r6,[r4,#0x24]  ; PortInit
0000ae  6065              STR      r5,[r4,#4]  ; PortInit
0000b0  e9c45707          STRD     r5,r7,[r4,#0x1c]
0000b4  4621              MOV      r1,r4
0000b6  4640              MOV      r0,r8
0000b8  f7fffffe          BL       PORT_Init
;;;433    
;;;434      /* Configure PORTB pins 9,10 for mlt output  */
;;;435      PortInit.PORT_Pin   = (PORT_Pin_8|PORT_Pin_9 | PORT_Pin_10);
0000bc  f44f60e0          MOV      r0,#0x700
0000c0  8020              STRH     r0,[r4,#0]
;;;436      PortInit.PORT_OE    = PORT_OE_OUT;
;;;437      PortInit.PORT_FUNC  = PORT_FUNC_PORT;
;;;438      PortInit.PORT_MODE  = PORT_MODE_DIGITAL;
0000c2  6066              STR      r6,[r4,#4]  ; PortInit
;;;439      PortInit.PORT_SPEED = PORT_SPEED_MAXFAST;
;;;440      PORT_Init(MDR_PORTB, &PortInit);
0000c4  6266              STR      r6,[r4,#0x24]  ; PortInit
0000c6  f8df8334          LDR      r8,|L1.1020|
0000ca  e9c45707          STRD     r5,r7,[r4,#0x1c]
0000ce  4621              MOV      r1,r4
0000d0  4640              MOV      r0,r8
0000d2  f7fffffe          BL       PORT_Init
;;;441       /* Configure PORTB pins 7 for mlt input */
;;;442      PortInit.PORT_Pin   = (PORT_Pin_7 );
0000d6  2080              MOVS     r0,#0x80
0000d8  8020              STRH     r0,[r4,#0]
;;;443      PortInit.PORT_OE    = PORT_OE_IN;
;;;444      PortInit.PORT_FUNC  = PORT_FUNC_PORT;
;;;445      PortInit.PORT_MODE  = PORT_MODE_DIGITAL;
;;;446      PortInit.PORT_SPEED = PORT_SPEED_MAXFAST;
;;;447        PORT_Init(MDR_PORTB, &PortInit);
0000da  6266              STR      r6,[r4,#0x24]  ; PortInit
0000dc  6065              STR      r5,[r4,#4]  ; PortInit
0000de  e9c45707          STRD     r5,r7,[r4,#0x1c]
0000e2  4621              MOV      r1,r4
0000e4  4640              MOV      r0,r8
0000e6  f7fffffe          BL       PORT_Init
;;;448    
;;;449      /* Configure PORTC pins 0,2 for mlt output */
;;;450      PortInit.PORT_Pin   = (PORT_Pin_0|PORT_Pin_1);
0000ea  8027              STRH     r7,[r4,#0]
;;;451      PortInit.PORT_OE    = PORT_OE_OUT;
;;;452      PortInit.PORT_FUNC  = PORT_FUNC_PORT;
;;;453      PortInit.PORT_MODE  = PORT_MODE_DIGITAL;
0000ec  6066              STR      r6,[r4,#4]  ; PortInit
;;;454      PortInit.PORT_SPEED = PORT_SPEED_MAXFAST;
;;;455      PORT_Init(MDR_PORTC, &PortInit);
0000ee  6266              STR      r6,[r4,#0x24]  ; PortInit
0000f0  f8df8314          LDR      r8,|L1.1032|
0000f4  e9c45707          STRD     r5,r7,[r4,#0x1c]
0000f8  4621              MOV      r1,r4
0000fa  4640              MOV      r0,r8
0000fc  f7fffffe          BL       PORT_Init
;;;456      
;;;457       /* Configure PORTC pins 2 for mlt input */
;;;458      PortInit.PORT_Pin   = (PORT_Pin_2);
000100  2004              MOVS     r0,#4
000102  8020              STRH     r0,[r4,#0]
;;;459      PortInit.PORT_OE    = PORT_OE_IN;
;;;460      PortInit.PORT_FUNC  = PORT_FUNC_PORT;
;;;461      PortInit.PORT_MODE  = PORT_MODE_DIGITAL;
;;;462      PortInit.PORT_SPEED = PORT_SPEED_MAXFAST;
;;;463      PORT_Init(MDR_PORTC, &PortInit);
000104  6266              STR      r6,[r4,#0x24]  ; PortInit
000106  6065              STR      r5,[r4,#4]  ; PortInit
000108  e9c45707          STRD     r5,r7,[r4,#0x1c]
00010c  4621              MOV      r1,r4
00010e  4640              MOV      r0,r8
000110  f7fffffe          BL       PORT_Init
;;;464     
;;;465     
;;;466        /* Configure PORTE pins 6 for mlt output */
;;;467      PortInit.PORT_Pin   = (PORT_Pin_6);
000114  2040              MOVS     r0,#0x40
000116  8020              STRH     r0,[r4,#0]
;;;468      PortInit.PORT_OE    = PORT_OE_OUT;
;;;469      PortInit.PORT_FUNC  = PORT_FUNC_PORT;
;;;470      PortInit.PORT_MODE  = PORT_MODE_DIGITAL;
000118  6066              STR      r6,[r4,#4]  ; PortInit
;;;471      PortInit.PORT_SPEED = PORT_SPEED_MAXFAST;
;;;472      PORT_Init(MDR_PORTE, &PortInit);
00011a  6266              STR      r6,[r4,#0x24]  ; PortInit
00011c  f8df82ec          LDR      r8,|L1.1036|
000120  e9c45707          STRD     r5,r7,[r4,#0x1c]
000124  4621              MOV      r1,r4
000126  4640              MOV      r0,r8
000128  f7fffffe          BL       PORT_Init
;;;473       /* Configure PORTE pins 0,1,2,3,7 for mlt input */
;;;474      PortInit.PORT_Pin   = (PORT_Pin_0|PORT_Pin_1|PORT_Pin_2|PORT_Pin_3|PORT_Pin_7);
00012c  208f              MOVS     r0,#0x8f
00012e  8020              STRH     r0,[r4,#0]
;;;475      PortInit.PORT_OE    = PORT_OE_IN;
;;;476      PortInit.PORT_FUNC  = PORT_FUNC_PORT;
;;;477      PortInit.PORT_MODE  = PORT_MODE_DIGITAL;
000130  6266              STR      r6,[r4,#0x24]  ; PortInit
000132  6065              STR      r5,[r4,#4]  ; PortInit
000134  e9c45707          STRD     r5,r7,[r4,#0x1c]
;;;478      PortInit.PORT_SPEED = PORT_SPEED_MAXFAST;
;;;479      PORT_Init(MDR_PORTE, &PortInit);
000138  4621              MOV      r1,r4
00013a  4640              MOV      r0,r8
00013c  e8bd41f0          POP      {r4-r8,lr}
000140  f7ffbffe          B.W      PORT_Init
;;;480    
;;;481    }
;;;482    
                          ENDP

                  LedPinGfg PROC
;;;483    void LedPinGfg (void)
000144  b570              PUSH     {r4-r6,lr}
;;;484    {
;;;485      /* Configure PORTA pins 6,7 for output to switch LEDs on/off */
;;;486      PortInit.PORT_Pin   = (PORT_Pin_6 | PORT_Pin_7);
000146  4cac              LDR      r4,|L1.1016|
000148  20c0              MOVS     r0,#0xc0
;;;487      PortInit.PORT_OE    = PORT_OE_OUT;
00014a  2501              MOVS     r5,#1
00014c  8020              STRH     r0,[r4,#0]            ;486
;;;488      PortInit.PORT_FUNC  = PORT_FUNC_PORT;
;;;489      PortInit.PORT_MODE  = PORT_MODE_DIGITAL;
00014e  6065              STR      r5,[r4,#4]  ; PortInit
000150  2600              MOVS     r6,#0                 ;488
;;;490      PortInit.PORT_SPEED = PORT_SPEED_SLOW;
;;;491    
;;;492      PORT_Init(MDR_PORTA, &PortInit);
000152  6265              STR      r5,[r4,#0x24]  ; PortInit
000154  e9c46507          STRD     r6,r5,[r4,#0x1c]
000158  4621              MOV      r1,r4
00015a  48aa              LDR      r0,|L1.1028|
00015c  f7fffffe          BL       PORT_Init
;;;493    
;;;494        /* Configure PORTB pins 8 for output to switch LEDs on/off */
;;;495      PortInit.PORT_Pin   = (PORT_Pin_8);
000160  0228              LSLS     r0,r5,#8
000162  8020              STRH     r0,[r4,#0]
;;;496      PortInit.PORT_OE    = PORT_OE_OUT;
;;;497      PortInit.PORT_FUNC  = PORT_FUNC_PORT;
;;;498      PortInit.PORT_MODE  = PORT_MODE_DIGITAL;
000164  6065              STR      r5,[r4,#4]  ; PortInit
;;;499      PortInit.PORT_SPEED = PORT_SPEED_SLOW;
;;;500    
;;;501      PORT_Init(MDR_PORTB, &PortInit);
000166  6265              STR      r5,[r4,#0x24]  ; PortInit
000168  e9c46507          STRD     r6,r5,[r4,#0x1c]
00016c  4621              MOV      r1,r4
00016e  48a3              LDR      r0,|L1.1020|
000170  f7fffffe          BL       PORT_Init
;;;502    
;;;503          /* Configure PORTC pins 1 for output to switch LEDs on/off */
;;;504      PortInit.PORT_Pin   = (PORT_Pin_1);
000174  2002              MOVS     r0,#2
000176  8020              STRH     r0,[r4,#0]
;;;505      PortInit.PORT_OE    = PORT_OE_OUT;
;;;506      PortInit.PORT_FUNC  = PORT_FUNC_PORT;
;;;507      PortInit.PORT_MODE  = PORT_MODE_DIGITAL;
000178  6065              STR      r5,[r4,#4]  ; PortInit
00017a  6265              STR      r5,[r4,#0x24]  ; PortInit
00017c  e9c46507          STRD     r6,r5,[r4,#0x1c]
;;;508      PortInit.PORT_SPEED = PORT_SPEED_SLOW;
;;;509    
;;;510      PORT_Init(MDR_PORTC, &PortInit);
000180  4621              MOV      r1,r4
000182  e8bd4070          POP      {r4-r6,lr}
000186  48a0              LDR      r0,|L1.1032|
000188  f7ffbffe          B.W      PORT_Init
;;;511    }
;;;512    
                          ENDP

                  Uart2Setup PROC
;;;513    
;;;514    void Uart2Setup(void)
00018c  489a              LDR      r0,|L1.1016|
;;;515    {
00018e  b510              PUSH     {r4,lr}
;;;516    	unsigned int temp;
;;;517     
;;;518        UART_InitStructure.UART_BaudRate                = 115200;
000190  3028              ADDS     r0,r0,#0x28
000192  f44f31e1          MOV      r1,#0x1c200
;;;519        UART_InitStructure.UART_WordLength              = UART_WordLength8b;
000196  6001              STR      r1,[r0,#0]  ; UART_InitStructure
000198  2160              MOVS     r1,#0x60
00019a  8081              STRH     r1,[r0,#4]
;;;520        UART_InitStructure.UART_StopBits                = UART_StopBits1;
00019c  2100              MOVS     r1,#0
00019e  80c1              STRH     r1,[r0,#6]
;;;521        UART_InitStructure.UART_Parity                  = UART_Parity_No;
0001a0  8101              STRH     r1,[r0,#8]
;;;522        UART_InitStructure.UART_FIFOMode                = UART_FIFO_OFF;
0001a2  8141              STRH     r1,[r0,#0xa]
;;;523        UART_InitStructure.UART_HardwareFlowControl     = UART_HardwareFlowControl_RXE | UART_HardwareFlowControl_TXE;
0001a4  f44f7140          MOV      r1,#0x300
0001a8  8181              STRH     r1,[r0,#0xc]
;;;524    
;;;525        /* Configure UART2 parameters*/
;;;526        UART_Init (MDR_UART2,&UART_InitStructure);
0001aa  4c99              LDR      r4,|L1.1040|
0001ac  4601              MOV      r1,r0
0001ae  4620              MOV      r0,r4
0001b0  f7fffffe          BL       UART_Init
;;;527          /* Enable Receiver interrupt */
;;;528     //   UART_ITConfig (MDR_UART2, UART_IT_RX, ENABLE);
;;;529        /* Enables UART2 peripheral */
;;;530        UART_Cmd(MDR_UART2,ENABLE); 
0001b4  2101              MOVS     r1,#1
0001b6  4620              MOV      r0,r4
0001b8  f7fffffe          BL       UART_Cmd
;;;531    
;;;532          /* Enable transmitter interrupt (UARTTXINTR) */
;;;533     // UART_ITConfig (MDR_UART2, UART_IT_TX, ENABLE);
;;;534    
;;;535       /* Enable Receiver interrupt */
;;;536        UART_ITConfig (MDR_UART2, UART_IT_RX, ENABLE);
0001bc  4620              MOV      r0,r4
0001be  2201              MOVS     r2,#1
0001c0  e8bd4010          POP      {r4,lr}
0001c4  2110              MOVS     r1,#0x10
0001c6  f7ffbffe          B.W      UART_ITConfig
;;;537    
;;;538    }
;;;539    
                          ENDP

                  Uart1Setup PROC
;;;540    void Uart1Setup(void)
0001ca  488b              LDR      r0,|L1.1016|
;;;541    {
0001cc  b510              PUSH     {r4,lr}
;;;542    	unsigned int temp;
;;;543     
;;;544        UART_InitStructure.UART_BaudRate                = 115200;
0001ce  3028              ADDS     r0,r0,#0x28
0001d0  f44f31e1          MOV      r1,#0x1c200
;;;545        UART_InitStructure.UART_WordLength              = UART_WordLength8b;
0001d4  6001              STR      r1,[r0,#0]  ; UART_InitStructure
0001d6  2160              MOVS     r1,#0x60
0001d8  8081              STRH     r1,[r0,#4]
;;;546        UART_InitStructure.UART_StopBits                = UART_StopBits1;
0001da  2100              MOVS     r1,#0
0001dc  80c1              STRH     r1,[r0,#6]
;;;547        UART_InitStructure.UART_Parity                  = UART_Parity_No;
0001de  8101              STRH     r1,[r0,#8]
;;;548        UART_InitStructure.UART_FIFOMode                = UART_FIFO_OFF;
0001e0  8141              STRH     r1,[r0,#0xa]
;;;549        UART_InitStructure.UART_HardwareFlowControl     = UART_HardwareFlowControl_RXE | UART_HardwareFlowControl_TXE;
0001e2  f44f7140          MOV      r1,#0x300
0001e6  8181              STRH     r1,[r0,#0xc]
;;;550    
;;;551        /* Configure UART1 parameters*/
;;;552        UART_Init (MDR_UART1,&UART_InitStructure);
0001e8  4c8a              LDR      r4,|L1.1044|
0001ea  4601              MOV      r1,r0
0001ec  4620              MOV      r0,r4
0001ee  f7fffffe          BL       UART_Init
;;;553          /* Enable Receiver interrupt */
;;;554     //   UART_ITConfig (MDR_UART1, UART_IT_RX, ENABLE);
;;;555        /* Enables UART1 peripheral */
;;;556        UART_Cmd(MDR_UART1,ENABLE); 
0001f2  2101              MOVS     r1,#1
0001f4  4620              MOV      r0,r4
0001f6  f7fffffe          BL       UART_Cmd
;;;557    
;;;558             /* Enable transmitter interrupt (UARTTXINTR) */
;;;559     // UART_ITConfig (MDR_UART1, UART_IT_TX, ENABLE);
;;;560    
;;;561       /* Enable Receiver interrupt */
;;;562      UART_ITConfig (MDR_UART1, UART_IT_RX, ENABLE);
0001fa  4620              MOV      r0,r4
0001fc  2201              MOVS     r2,#1
0001fe  e8bd4010          POP      {r4,lr}
000202  2110              MOVS     r1,#0x10
000204  f7ffbffe          B.W      UART_ITConfig
;;;563    
;;;564    }
;;;565    
                          ENDP

                  SPI_init PROC
;;;566    void SPI_init(void)
000208  e92d5ff0          PUSH     {r4-r12,lr}
;;;567    
;;;568    {
;;;569    	/* Configure SSP2 pins: FSS, CLK, RXD, TXD */
;;;570      /* Configure PORTD pins  3 как ручной чипселект*/ 
;;;571      PortInit.PORT_Pin   = (PORT_Pin_3);
00020c  4c7a              LDR      r4,|L1.1016|
00020e  2008              MOVS     r0,#8
;;;572      PortInit.PORT_OE    = PORT_OE_OUT;
000210  2601              MOVS     r6,#1
000212  8020              STRH     r0,[r4,#0]            ;571
;;;573      PortInit.PORT_FUNC  = PORT_FUNC_PORT;
;;;574      PortInit.PORT_MODE  = PORT_MODE_DIGITAL;
000214  6066              STR      r6,[r4,#4]  ; PortInit
000216  2500              MOVS     r5,#0                 ;573
;;;575      PortInit.PORT_SPEED = PORT_SPEED_FAST;
000218  2702              MOVS     r7,#2
00021a  6266              STR      r6,[r4,#0x24]  ; PortInit
00021c  e9c45707          STRD     r5,r7,[r4,#0x1c]
;;;576      PortInit.PORT_PD    = PORT_PD_DRIVER;
;;;577      PORT_Init(MDR_PORTD, &PortInit);	
000220  f8df81dc          LDR      r8,|L1.1024|
000224  4621              MOV      r1,r4
000226  4640              MOV      r0,r8
000228  6165              STR      r5,[r4,#0x14]  ; PortInit
00022a  f7fffffe          BL       PORT_Init
;;;578    
;;;579      /* Configure PORTD pins   5, 6 */
;;;580      PortInit.PORT_Pin   = (PORT_Pin_6 |  PORT_Pin_5);
00022e  2060              MOVS     r0,#0x60
000230  8020              STRH     r0,[r4,#0]
;;;581      PortInit.PORT_OE    = PORT_OE_OUT;
;;;582      PortInit.PORT_FUNC  = PORT_FUNC_ALTER;
;;;583      PortInit.PORT_MODE  = PORT_MODE_DIGITAL;
;;;584      PortInit.PORT_SPEED = PORT_SPEED_FAST;
;;;585      PortInit.PORT_PD    = PORT_PD_DRIVER;
;;;586      PORT_Init(MDR_PORTD, &PortInit);
000232  61e7              STR      r7,[r4,#0x1c]  ; PortInit
000234  6066              STR      r6,[r4,#4]  ; PortInit
000236  6165              STR      r5,[r4,#0x14]  ; PortInit
000238  e9c47608          STRD     r7,r6,[r4,#0x20]
00023c  4621              MOV      r1,r4
00023e  4640              MOV      r0,r8
000240  f7fffffe          BL       PORT_Init
;;;587    
;;;588      /* Configure SSP1 pins: FSS, CLK, RXD, TXD */
;;;589    
;;;590      /* Configure PORTF pins 0, 1,  3 */
;;;591      PortInit.PORT_Pin   = (PORT_Pin_0 | PORT_Pin_1);
000244  2003              MOVS     r0,#3
000246  8020              STRH     r0,[r4,#0]
;;;592      PortInit.PORT_OE    = PORT_OE_OUT;
;;;593      PORT_Init(MDR_PORTF, &PortInit);
000248  f8df81cc          LDR      r8,|L1.1048|
00024c  4621              MOV      r1,r4
00024e  4640              MOV      r0,r8
000250  6066              STR      r6,[r4,#4]  ; PortInit
000252  f7fffffe          BL       PORT_Init
;;;594    
;;;595        /* Configure PORTF pins  2 ,  как ручной чипселект */
;;;596    
;;;597      PortInit.PORT_Pin   = (PORT_Pin_2);
000256  2004              MOVS     r0,#4
000258  8020              STRH     r0,[r4,#0]
;;;598      PortInit.PORT_OE    = PORT_OE_OUT;
;;;599      PortInit.PORT_FUNC  = PORT_FUNC_PORT;
;;;600      PortInit.PORT_MODE  = PORT_MODE_DIGITAL;
00025a  6066              STR      r6,[r4,#4]  ; PortInit
00025c  6266              STR      r6,[r4,#0x24]  ; PortInit
00025e  e9c45707          STRD     r5,r7,[r4,#0x1c]
;;;601      PortInit.PORT_SPEED = PORT_SPEED_FAST;
;;;602      PortInit.PORT_PD    = PORT_PD_DRIVER;
;;;603      PORT_Init(MDR_PORTF, &PortInit);	
000262  4621              MOV      r1,r4
000264  4640              MOV      r0,r8
000266  6165              STR      r5,[r4,#0x14]  ; PortInit
000268  f7fffffe          BL       PORT_Init
;;;604    
;;;605      SSP_BRGInit(MDR_SSP1,SSP_HCLKdiv16);
00026c  f8dfb1ac          LDR      r11,|L1.1052|
000270  2104              MOVS     r1,#4
000272  4658              MOV      r0,r11
000274  f7fffffe          BL       SSP_BRGInit
;;;606      SSP_BRGInit(MDR_SSP2,SSP_HCLKdiv16);
000278  2104              MOVS     r1,#4
00027a  4869              LDR      r0,|L1.1056|
00027c  f7fffffe          BL       SSP_BRGInit
;;;607    
;;;608      /* SSP1 MASTER configuration ------------------------------------------------*/
;;;609      SSP_StructInit (&sSSP);
000280  f1040038          ADD      r0,r4,#0x38
000284  f7fffffe          BL       SSP_StructInit
;;;610    
;;;611      sSSP.SSP_SCR  = 0xff; /*!< This member configures the SSP communication speed.
000288  3438              ADDS     r4,r4,#0x38
00028a  26ff              MOVS     r6,#0xff
00028c  8026              STRH     r6,[r4,#0]
;;;612                                                    This parameter is number from 0 to 255.
;;;613                                                    The information rate is computed using the following formula:
;;;614                                                    F_SSPCLK / ( CPSDVR * (1 + SCR) ) */
;;;615      sSSP.SSP_CPSDVSR = 16;/*!< This member configures the SSP clock divider.
00028e  2710              MOVS     r7,#0x10
000290  8067              STRH     r7,[r4,#2]
;;;616                                                    This parameter is an even number from 2 to 254 */
;;;617      sSSP.SSP_Mode = SSP_ModeMaster;
000292  80a5              STRH     r5,[r4,#4]
;;;618      sSSP.SSP_WordLength = SSP_WordLength16b;
000294  f04f080f          MOV      r8,#0xf
000298  f8a48006          STRH     r8,[r4,#6]
;;;619      sSSP.SSP_SPH = SSP_SPH_2Edge;
00029c  f04f0980          MOV      r9,#0x80
0002a0  f8a49008          STRH     r9,[r4,#8]
;;;620      sSSP.SSP_SPO = SSP_SPO_High;
0002a4  f04f0a40          MOV      r10,#0x40
0002a8  f8a4a00a          STRH     r10,[r4,#0xa]
;;;621      sSSP.SSP_FRF = SSP_FRF_SPI_Motorola;
0002ac  81a5              STRH     r5,[r4,#0xc]
;;;622      sSSP.SSP_HardwareFlowControl = SSP_HardwareFlowControl_None;
0002ae  81e5              STRH     r5,[r4,#0xe]
;;;623      SSP_Init (MDR_SSP1,&sSSP);
0002b0  4621              MOV      r1,r4
0002b2  4658              MOV      r0,r11
0002b4  f7fffffe          BL       SSP_Init
;;;624    
;;;625      /* SSP2 MASTER configuration ------------------------------------------------*/
;;;626      
;;;627      sSSP.SSP_SCR  = 0xff;
0002b8  8026              STRH     r6,[r4,#0]
;;;628      sSSP.SSP_CPSDVSR = 16;
0002ba  8067              STRH     r7,[r4,#2]
;;;629      sSSP.SSP_Mode = SSP_ModeMaster;
0002bc  80a5              STRH     r5,[r4,#4]
;;;630      sSSP.SSP_WordLength = SSP_WordLength16b;
0002be  f8a48006          STRH     r8,[r4,#6]
;;;631      sSSP.SSP_SPH = SSP_SPH_2Edge;
0002c2  f8a49008          STRH     r9,[r4,#8]
;;;632      sSSP.SSP_SPO = SSP_SPO_High;
0002c6  f8a4a00a          STRH     r10,[r4,#0xa]
;;;633      sSSP.SSP_FRF = SSP_FRF_SPI_Motorola;
0002ca  81a5              STRH     r5,[r4,#0xc]
;;;634      sSSP.SSP_HardwareFlowControl = SSP_HardwareFlowControl_None;
0002cc  81e5              STRH     r5,[r4,#0xe]
;;;635      SSP_Init (MDR_SSP2,&sSSP);
0002ce  4621              MOV      r1,r4
0002d0  4853              LDR      r0,|L1.1056|
0002d2  f7fffffe          BL       SSP_Init
;;;636    
;;;637      /* Enable SSP1 */
;;;638      SSP_Cmd(MDR_SSP1, ENABLE);
0002d6  2101              MOVS     r1,#1
0002d8  4658              MOV      r0,r11
0002da  f7fffffe          BL       SSP_Cmd
;;;639      /* Enable SSP2 */
;;;640      SSP_Cmd(MDR_SSP2, ENABLE);
0002de  e8bd5ff0          POP      {r4-r12,lr}
0002e2  2101              MOVS     r1,#1
0002e4  484e              LDR      r0,|L1.1056|
0002e6  f7ffbffe          B.W      SSP_Cmd
;;;641    
;;;642    }
;;;643    
                          ENDP

                  delay PROC
;;;645    //===============================================================
;;;646    void delay(int inc)
0002ea  00c0              LSLS     r0,r0,#3
;;;647    {
0002ec  e000              B        |L1.752|
                  |L1.750|
0002ee  1e40              SUBS     r0,r0,#1
                  |L1.752|
;;;648    //---------------------------------------------------------------
;;;649       inc <<= 3;
;;;650       while(inc !=0) inc--;
0002f0  2800              CMP      r0,#0
0002f2  d1fc              BNE      |L1.750|
;;;651    //---------------------------------------------------------------
;;;652    }
0002f4  4770              BX       lr
;;;653    
                          ENDP

                  CS_SPI1 PROC
;;;655    
;;;656    void CS_SPI1 (char a)
0002f6  b570              PUSH     {r4-r6,lr}
;;;657    {
;;;658       while (SSP_GetFlagStatus(MDR_SSP1, SSP_FLAG_BSY) == SET) {};
0002f8  4d48              LDR      r5,|L1.1052|
0002fa  4604              MOV      r4,r0                 ;657
                  |L1.764|
0002fc  2110              MOVS     r1,#0x10
0002fe  4628              MOV      r0,r5
000300  f7fffffe          BL       SSP_GetFlagStatus
000304  2801              CMP      r0,#1
000306  d0f9              BEQ      |L1.764|
;;;659    
;;;660      if (a==1)
;;;661      {
;;;662        delay(300);
;;;663        PORT_SetBits  (MDR_PORTF, PORT_Pin_2);
000308  4a43              LDR      r2,|L1.1048|
00030a  f44f7596          MOV      r5,#0x12c             ;662
00030e  2c01              CMP      r4,#1                 ;660
000310  d00c              BEQ      |L1.812|
;;;664        delay(300);
;;;665      }
;;;666    
;;;667      if (a==0)
000312  2c00              CMP      r4,#0
000314  d112              BNE      |L1.828|
;;;668      {
;;;669        delay(300);
000316  4628              MOV      r0,r5
000318  f7fffffe          BL       delay
;;;670        PORT_ResetBits (MDR_PORTF, PORT_Pin_2);
00031c  2104              MOVS     r1,#4
00031e  4610              MOV      r0,r2
000320  f7fffffe          BL       PORT_ResetBits
                  |L1.804|
;;;671        delay(300);
000324  4628              MOV      r0,r5
000326  e8bd4070          POP      {r4-r6,lr}
00032a  e7fe              B        delay
                  |L1.812|
00032c  4628              MOV      r0,r5                 ;662
00032e  f7fffffe          BL       delay
000332  2104              MOVS     r1,#4                 ;663
000334  4610              MOV      r0,r2                 ;663
000336  f7fffffe          BL       PORT_SetBits
00033a  e7f3              B        |L1.804|
                  |L1.828|
;;;672      }
;;;673    
;;;674    }     
00033c  bd70              POP      {r4-r6,pc}
;;;675    
                          ENDP

                  CS_SPI2 PROC
;;;676    void CS_SPI2 (char a)
00033e  b570              PUSH     {r4-r6,lr}
;;;677    {
;;;678    
;;;679      while (SSP_GetFlagStatus(MDR_SSP2, SSP_FLAG_BSY) == SET) {};
000340  4d37              LDR      r5,|L1.1056|
000342  4604              MOV      r4,r0                 ;677
                  |L1.836|
000344  2110              MOVS     r1,#0x10
000346  4628              MOV      r0,r5
000348  f7fffffe          BL       SSP_GetFlagStatus
00034c  2801              CMP      r0,#1
00034e  d0f9              BEQ      |L1.836|
;;;680    
;;;681      if (a==1)
;;;682      {
;;;683        delay(300);
;;;684        PORT_SetBits  (MDR_PORTD, PORT_Pin_3);
000350  4a2b              LDR      r2,|L1.1024|
000352  f44f7596          MOV      r5,#0x12c             ;683
000356  2c01              CMP      r4,#1                 ;681
000358  d00c              BEQ      |L1.884|
;;;685        delay(300);
;;;686      }
;;;687    
;;;688      if (a==0)
00035a  2c00              CMP      r4,#0
00035c  d112              BNE      |L1.900|
;;;689      {
;;;690        delay(300);
00035e  4628              MOV      r0,r5
000360  f7fffffe          BL       delay
;;;691        PORT_ResetBits (MDR_PORTD, PORT_Pin_3);
000364  2108              MOVS     r1,#8
000366  4610              MOV      r0,r2
000368  f7fffffe          BL       PORT_ResetBits
                  |L1.876|
;;;692        delay(300);
00036c  4628              MOV      r0,r5
00036e  e8bd4070          POP      {r4-r6,lr}
000372  e7fe              B        delay
                  |L1.884|
000374  4628              MOV      r0,r5                 ;683
000376  f7fffffe          BL       delay
00037a  2108              MOVS     r1,#8                 ;684
00037c  4610              MOV      r0,r2                 ;684
00037e  f7fffffe          BL       PORT_SetBits
000382  e7f3              B        |L1.876|
                  |L1.900|
;;;693      }
;;;694    
;;;695    }                 
000384  bd70              POP      {r4-r6,pc}
;;;696    
                          ENDP

                  SPI1_send PROC
;;;697    void SPI1_send(u16 a)
000386  b570              PUSH     {r4-r6,lr}
;;;698    {
;;;699    	/* Wait for SPI1 Tx buffer empty */
;;;700        while (SSP_GetFlagStatus(MDR_SSP1, SSP_FLAG_TFE) == RESET)
000388  4c24              LDR      r4,|L1.1052|
00038a  4605              MOV      r5,r0                 ;698
                  |L1.908|
00038c  2101              MOVS     r1,#1
00038e  4620              MOV      r0,r4
000390  f7fffffe          BL       SSP_GetFlagStatus
000394  2800              CMP      r0,#0
000396  d0f9              BEQ      |L1.908|
;;;701        {
;;;702        }
;;;703        /* Send SPI1 data */
;;;704        SSP_SendData(MDR_SSP1,a);
000398  4629              MOV      r1,r5
00039a  4620              MOV      r0,r4
00039c  e8bd4070          POP      {r4-r6,lr}
0003a0  f7ffbffe          B.W      SSP_SendData
;;;705    }
;;;706    
                          ENDP

                  SPI2_send PROC
;;;707    void SPI2_send(u16 a)
0003a4  b570              PUSH     {r4-r6,lr}
;;;708    {
;;;709    	/* Wait for SPI2 Tx buffer empty */
;;;710        while (SSP_GetFlagStatus(MDR_SSP2, SSP_FLAG_TFE) == RESET)
0003a6  4c1e              LDR      r4,|L1.1056|
0003a8  4605              MOV      r5,r0                 ;708
                  |L1.938|
0003aa  2101              MOVS     r1,#1
0003ac  4620              MOV      r0,r4
0003ae  f7fffffe          BL       SSP_GetFlagStatus
0003b2  2800              CMP      r0,#0
0003b4  d0f9              BEQ      |L1.938|
;;;711        {
;;;712        }
;;;713        /* Send SPI2 data */
;;;714        SSP_SendData(MDR_SSP2,a);
0003b6  4629              MOV      r1,r5
0003b8  4620              MOV      r0,r4
0003ba  e8bd4070          POP      {r4-r6,lr}
0003be  f7ffbffe          B.W      SSP_SendData
;;;715    }
;;;716    
                          ENDP

                  SPI1_read PROC
;;;717    u16 SPI1_read(void)
0003c2  b510              PUSH     {r4,lr}
;;;718    {
;;;719    	u16 a;
;;;720    	/* Wait for SPI1 data reception */
;;;721        while (SSP_GetFlagStatus(MDR_SSP1, SSP_FLAG_RNE) == RESET)
0003c4  4c15              LDR      r4,|L1.1052|
                  |L1.966|
0003c6  2104              MOVS     r1,#4
0003c8  4620              MOV      r0,r4
0003ca  f7fffffe          BL       SSP_GetFlagStatus
0003ce  2800              CMP      r0,#0
0003d0  d0f9              BEQ      |L1.966|
;;;722        {
;;;723        }
;;;724        /* Read SPI1 received data */
;;;725        a = SSP_ReceiveData(MDR_SSP1);
0003d2  4620              MOV      r0,r4
0003d4  e8bd4010          POP      {r4,lr}
0003d8  f7ffbffe          B.W      SSP_ReceiveData
;;;726        return a;
;;;727    }
;;;728    
                          ENDP

                  SPI2_read PROC
;;;729    u16 SPI2_read(void)
0003dc  b510              PUSH     {r4,lr}
;;;730    {
;;;731    	u16 a;
;;;732    	/* Wait for SPI2 data reception */
;;;733        while (SSP_GetFlagStatus(MDR_SSP2, SSP_FLAG_RNE) == RESET)
0003de  4c10              LDR      r4,|L1.1056|
                  |L1.992|
0003e0  2104              MOVS     r1,#4
0003e2  4620              MOV      r0,r4
0003e4  f7fffffe          BL       SSP_GetFlagStatus
0003e8  2800              CMP      r0,#0
0003ea  d0f9              BEQ      |L1.992|
;;;734        {
;;;735        }
;;;736        /* Read SPI2 received data */
;;;737        a = SSP_ReceiveData(MDR_SSP2);
0003ec  4620              MOV      r0,r4
0003ee  e8bd4010          POP      {r4,lr}
0003f2  f7ffbffe          B.W      SSP_ReceiveData
0003f6  0000              DCW      0x0000
                  |L1.1016|
                          DCD      ||.bss||
                  |L1.1020|
                          DCD      0x400b0000
                  |L1.1024|
                          DCD      0x400c0000
                  |L1.1028|
                          DCD      0x400a8000
                  |L1.1032|
                          DCD      0x400b8000
                  |L1.1036|
                          DCD      0x400c8000
                  |L1.1040|
                          DCD      0x40038000
                  |L1.1044|
                          DCD      0x40030000
                  |L1.1048|
                          DCD      0x400e8000
                  |L1.1052|
                          DCD      0x40040000
                  |L1.1056|
                          DCD      0x400a0000
                          ENDP

                  RegisterInits PROC
;;;743    
;;;744    void RegisterInits () 
000424  b510              PUSH     {r4,lr}
;;;745    { 
;;;746      /* Set RST_CLK to default */
;;;747     //   RST_CLK_DeInit();
;;;748       
;;;749     RST_CLK_PCLKcmd(RST_CLK_PCLK_BKP,ENABLE);
000426  2101              MOVS     r1,#1
000428  06c8              LSLS     r0,r1,#27
00042a  f7fffffe          BL       RST_CLK_PCLKcmd
;;;750    
;;;751    // 3. CPU_CLK = 7*HSE/2 clock 
;;;752       
;;;753        //Enable HSE clock source 
;;;754         RST_CLK_HSEconfig(RST_CLK_HSE_ON);
00042e  2001              MOVS     r0,#1
000430  f7fffffe          BL       RST_CLK_HSEconfig
                  |L1.1076|
;;;755    
;;;756         while (RST_CLK_HSEstatus() != SUCCESS)  {}; // Good HSE clock 
000434  f7fffffe          BL       RST_CLK_HSEstatus
000438  2801              CMP      r0,#1
00043a  d1fb              BNE      |L1.1076|
;;;757    
;;;758         // Select HSE clock as CPU_PLL input clock source
;;;759         // Set PLL multiplier to 7                       
;;;760         RST_CLK_CPU_PLLconfig(RST_CLK_CPU_PLLsrcHSEdiv1, 5);
00043c  2105              MOVS     r1,#5
00043e  2002              MOVS     r0,#2
000440  f7fffffe          BL       RST_CLK_CPU_PLLconfig
;;;761    
;;;762          // Enable CPU_PLL 
;;;763         RST_CLK_CPU_PLLcmd(ENABLE);
000444  2001              MOVS     r0,#1
000446  f7fffffe          BL       RST_CLK_CPU_PLLcmd
                  |L1.1098|
;;;764    
;;;765         while (RST_CLK_HSEstatus() != SUCCESS)    {}; //Good CPU PLL 
00044a  f7fffffe          BL       RST_CLK_HSEstatus
00044e  2801              CMP      r0,#1
000450  d1fb              BNE      |L1.1098|
;;;766    
;;;767           // Set CPU_C3_prescaler to 2 
;;;768            RST_CLK_CPUclkPrescaler(RST_CLK_CPUclkDIV2);
000452  2008              MOVS     r0,#8
000454  f7fffffe          BL       RST_CLK_CPUclkPrescaler
;;;769            // Set CPU_C2_SEL to CPU_PLL output instead of CPU_C1 clock 
;;;770            RST_CLK_CPU_PLLuse(ENABLE);
000458  2001              MOVS     r0,#1
00045a  f7fffffe          BL       RST_CLK_CPU_PLLuse
;;;771            // Select CPU_C3 clock on the CPU clock MUX 
;;;772            RST_CLK_CPUclkSelection(RST_CLK_CPUclkCPU_C3);
00045e  f44f7480          MOV      r4,#0x100
000462  4620              MOV      r0,r4
000464  f7fffffe          BL       RST_CLK_CPUclkSelection
;;;773    
;;;774         RST_CLK_PCLKcmd(RST_CLK_PCLK_RST_CLK,ENABLE);
000468  2101              MOVS     r1,#1
00046a  2010              MOVS     r0,#0x10
00046c  f7fffffe          BL       RST_CLK_PCLKcmd
;;;775    	 RST_CLK_PCLKcmd(RST_CLK_PCLK_PORTA,ENABLE);
000470  2101              MOVS     r1,#1
000472  0548              LSLS     r0,r1,#21
000474  f7fffffe          BL       RST_CLK_PCLKcmd
;;;776    	 RST_CLK_PCLKcmd(RST_CLK_PCLK_PORTB,ENABLE);
000478  2101              MOVS     r1,#1
00047a  0588              LSLS     r0,r1,#22
00047c  f7fffffe          BL       RST_CLK_PCLKcmd
;;;777    	 RST_CLK_PCLKcmd(RST_CLK_PCLK_PORTC,ENABLE);
000480  2101              MOVS     r1,#1
000482  05c8              LSLS     r0,r1,#23
000484  f7fffffe          BL       RST_CLK_PCLKcmd
;;;778    	 RST_CLK_PCLKcmd(RST_CLK_PCLK_PORTD,ENABLE); 
000488  2101              MOVS     r1,#1
00048a  0608              LSLS     r0,r1,#24
00048c  f7fffffe          BL       RST_CLK_PCLKcmd
;;;779    	 RST_CLK_PCLKcmd(RST_CLK_PCLK_PORTE,ENABLE);
000490  2101              MOVS     r1,#1
000492  0648              LSLS     r0,r1,#25
000494  f7fffffe          BL       RST_CLK_PCLKcmd
;;;780         RST_CLK_PCLKcmd(RST_CLK_PCLK_PORTF,ENABLE);
000498  2101              MOVS     r1,#1
00049a  0748              LSLS     r0,r1,#29
00049c  f7fffffe          BL       RST_CLK_PCLKcmd
;;;781    
;;;782    //Enables SPI
;;;783    	RST_CLK_PCLKcmd(RST_CLK_PCLK_SSP1,ENABLE);
0004a0  2101              MOVS     r1,#1
0004a2  4620              MOV      r0,r4
0004a4  f7fffffe          BL       RST_CLK_PCLKcmd
;;;784    	RST_CLK_PCLKcmd(RST_CLK_PCLK_SSP2,ENABLE);
0004a8  2101              MOVS     r1,#1
0004aa  0508              LSLS     r0,r1,#20
0004ac  f7fffffe          BL       RST_CLK_PCLKcmd
;;;785    
;;;786     /* Enables the CPU_CLK clock on UART1,UART2 */
;;;787         RST_CLK_PCLKcmd(RST_CLK_PCLK_UART1, ENABLE);
0004b0  2101              MOVS     r1,#1
0004b2  2040              MOVS     r0,#0x40
0004b4  f7fffffe          BL       RST_CLK_PCLKcmd
;;;788         RST_CLK_PCLKcmd(RST_CLK_PCLK_UART2, ENABLE);
0004b8  2101              MOVS     r1,#1
0004ba  2080              MOVS     r0,#0x80
0004bc  f7fffffe          BL       RST_CLK_PCLKcmd
;;;789    
;;;790    // Set the HCLK division factor = 1 for UART1,UART2 
;;;791        UART_BRGInit(MDR_UART1, UART_HCLKdiv1);
0004c0  2100              MOVS     r1,#0
0004c2  48ec              LDR      r0,|L1.2164|
0004c4  f7fffffe          BL       UART_BRGInit
;;;792        UART_BRGInit(MDR_UART2, UART_HCLKdiv1);
0004c8  2100              MOVS     r1,#0
0004ca  48eb              LDR      r0,|L1.2168|
0004cc  f7fffffe          BL       UART_BRGInit
;;;793    
;;;794      NVIC_EnableIRQ(UART1_IRQn);
0004d0  2006              MOVS     r0,#6
0004d2  f7fffffe          BL       NVIC_EnableIRQ
;;;795      NVIC_EnableIRQ(UART2_IRQn);
0004d6  e8bd4010          POP      {r4,lr}
0004da  2007              MOVS     r0,#7
0004dc  f7ffbffe          B.W      NVIC_EnableIRQ
;;;796    
;;;797    
;;;798    }
;;;799    
                          ENDP

                  TX_485 PROC
;;;800     void TX_485 (void)
0004e0  b510              PUSH     {r4,lr}
;;;801    {
;;;802    	RE_485_1;
0004e2  2104              MOVS     r1,#4
0004e4  48e5              LDR      r0,|L1.2172|
0004e6  f7fffffe          BL       PORT_SetBits
;;;803    	DE_485_1;
0004ea  e8bd4010          POP      {r4,lr}
0004ee  2101              MOVS     r1,#1
0004f0  48e3              LDR      r0,|L1.2176|
0004f2  f7ffbffe          B.W      PORT_SetBits
;;;804    }
;;;805    
                          ENDP

                  RX_485 PROC
;;;806    void RX_485 (void)
0004f6  b510              PUSH     {r4,lr}
;;;807    {
;;;808    	RE_485_0;
0004f8  2104              MOVS     r1,#4
0004fa  48e0              LDR      r0,|L1.2172|
0004fc  f7fffffe          BL       PORT_ResetBits
;;;809    	DE_485_0;
000500  e8bd4010          POP      {r4,lr}
000504  2101              MOVS     r1,#1
000506  48de              LDR      r0,|L1.2176|
000508  f7ffbffe          B.W      PORT_ResetBits
;;;810    }
;;;811    
                          ENDP

                  zputc PROC
;;;812    
;;;813    void zputc ( uint8_t c) 
00050c  b570              PUSH     {r4-r6,lr}
;;;814    {
;;;815      uint8_t DataByte;
;;;816    
;;;817      DataByte=c;
;;;818    
;;;819        /* Check TXFE flag */
;;;820        while (UART_GetFlagStatus (MDR_UART1, UART_FLAG_TXFE)!= SET)   {};
00050e  4dd9              LDR      r5,|L1.2164|
000510  4604              MOV      r4,r0                 ;817
                  |L1.1298|
000512  2180              MOVS     r1,#0x80
000514  4628              MOV      r0,r5
000516  f7fffffe          BL       UART_GetFlagStatus
00051a  2801              CMP      r0,#1
00051c  d1f9              BNE      |L1.1298|
;;;821       /* Send Data from UART1 */
;;;822        UART_SendData (MDR_UART1,DataByte);
00051e  4621              MOV      r1,r4
000520  4628              MOV      r0,r5
000522  e8bd4070          POP      {r4-r6,lr}
000526  f7ffbffe          B.W      UART_SendData
;;;823    
;;;824    }
;;;825    
                          ENDP

                  zputc2 PROC
;;;826    
;;;827    void zputc2 ( uint8_t c) 
00052a  b570              PUSH     {r4-r6,lr}
;;;828    {
;;;829      uint8_t DataByte;
;;;830    
;;;831      DataByte=c;
;;;832    
;;;833        /* Check TXFE flag */
;;;834        while (UART_GetFlagStatus (MDR_UART2, UART_FLAG_TXFE)!= SET)   {};
00052c  4dd2              LDR      r5,|L1.2168|
00052e  4604              MOV      r4,r0                 ;831
                  |L1.1328|
000530  2180              MOVS     r1,#0x80
000532  4628              MOV      r0,r5
000534  f7fffffe          BL       UART_GetFlagStatus
000538  2801              CMP      r0,#1
00053a  d1f9              BNE      |L1.1328|
;;;835       /* Send Data from UART2 */
;;;836        UART_SendData (MDR_UART2,DataByte);
00053c  4621              MOV      r1,r4
00053e  4628              MOV      r0,r5
000540  e8bd4070          POP      {r4-r6,lr}
000544  f7ffbffe          B.W      UART_SendData
;;;837    
;;;838    }
;;;839    
                          ENDP

                  zputs PROC
;;;840    
;;;841     void zputs( char s[], unsigned char l)
000548  b5f0              PUSH     {r4-r7,lr}
;;;842    {
00054a  b091              SUB      sp,sp,#0x44
00054c  460d              MOV      r5,r1
00054e  4606              MOV      r6,r0
;;;843        unsigned char i=0;
000550  2400              MOVS     r4,#0
;;;844             char c[64];
000552  466f              MOV      r7,sp
000554  e005              B        |L1.1378|
                  |L1.1366|
;;;845    	
;;;846          for (i=0;i<l;i++) 
;;;847            {
;;;848                c[i]=s[i];
000556  5d30              LDRB     r0,[r6,r4]
000558  5538              STRB     r0,[r7,r4]
;;;849             zputc (c[i]);
00055a  f7fffffe          BL       zputc
00055e  1c64              ADDS     r4,r4,#1
000560  b2e4              UXTB     r4,r4                 ;846
                  |L1.1378|
000562  42ac              CMP      r4,r5                 ;846
000564  d3f7              BCC      |L1.1366|
                  |L1.1382|
;;;850            }
;;;851    
;;;852    }
000566  b011              ADD      sp,sp,#0x44
000568  bdf0              POP      {r4-r7,pc}
;;;853    
                          ENDP

                  zputs2 PROC
;;;854     void zputs2( char s[], unsigned char l)
00056a  b5f0              PUSH     {r4-r7,lr}
;;;855    {
00056c  b091              SUB      sp,sp,#0x44
00056e  460d              MOV      r5,r1
000570  4606              MOV      r6,r0
;;;856          unsigned char i=0;
000572  2400              MOVS     r4,#0
;;;857                   char c[64];
000574  466f              MOV      r7,sp
000576  e005              B        |L1.1412|
                  |L1.1400|
;;;858    
;;;859          for (i=0;i<l;i++) 
;;;860            {
;;;861                 c[i]=s[i];
000578  5d30              LDRB     r0,[r6,r4]
00057a  5538              STRB     r0,[r7,r4]
;;;862             zputc2 (c[i]);
00057c  f7fffffe          BL       zputc2
000580  1c64              ADDS     r4,r4,#1
000582  b2e4              UXTB     r4,r4                 ;859
                  |L1.1412|
000584  42ac              CMP      r4,r5                 ;859
000586  d3f7              BCC      |L1.1400|
;;;863            }
;;;864     }
000588  e7ed              B        |L1.1382|
;;;865    
                          ENDP

                  leng PROC
;;;866    unsigned int leng ( char s[])
00058a  4601              MOV      r1,r0
;;;867    
;;;868      {
;;;869        unsigned  char i=0;
00058c  2000              MOVS     r0,#0
00058e  e001              B        |L1.1428|
                  |L1.1424|
000590  1c40              ADDS     r0,r0,#1              ;868
;;;870         while ((s[i]!='\0')&&(i<120)) { i++;}
000592  b2c0              UXTB     r0,r0
                  |L1.1428|
000594  5c0a              LDRB     r2,[r1,r0]
000596  2a00              CMP      r2,#0
000598  d001              BEQ      |L1.1438|
00059a  2878              CMP      r0,#0x78
00059c  d3f8              BCC      |L1.1424|
                  |L1.1438|
;;;871        return i;
;;;872      }
00059e  4770              BX       lr
;;;873    
                          ENDP

                  sendT PROC
;;;874    void sendT ( char  s[])
0005a0  b510              PUSH     {r4,lr}
;;;875    
;;;876     { 
0005a2  4603              MOV      r3,r0
;;;877       zputs(s,leng(s));
0005a4  f7fffffe          BL       leng
0005a8  b2c1              UXTB     r1,r0
0005aa  e8bd4010          POP      {r4,lr}
0005ae  4618              MOV      r0,r3
0005b0  e7fe              B        zputs
;;;878     }
;;;879    
                          ENDP

                  sendT2 PROC
;;;880    void sendT2 ( char s[])
0005b2  b510              PUSH     {r4,lr}
;;;881    
;;;882     {
0005b4  4603              MOV      r3,r0
;;;883        zputs2(s,leng(s));
0005b6  f7fffffe          BL       leng
0005ba  b2c1              UXTB     r1,r0
0005bc  e8bd4010          POP      {r4,lr}
0005c0  4618              MOV      r0,r3
0005c2  e7fe              B        zputs2
;;;884    
;;;885     }
;;;886    
                          ENDP

                  reverse PROC
;;;890      // reverse: 
;;;891     void reverse( char s[])
0005c4  b570              PUSH     {r4-r6,lr}
;;;892     {
0005c6  4605              MOV      r5,r0
;;;893         int i, j;
;;;894         char c;
;;;895     
;;;896         for (i = 0, j = strlen(s)-1; i<j; i++, j--) {
0005c8  2400              MOVS     r4,#0
0005ca  f7fffffe          BL       strlen
0005ce  1e40              SUBS     r0,r0,#1
0005d0  e005              B        |L1.1502|
                  |L1.1490|
;;;897             c = s[i];
0005d2  5d29              LDRB     r1,[r5,r4]
;;;898             s[i] = s[j];
0005d4  5c2a              LDRB     r2,[r5,r0]
0005d6  552a              STRB     r2,[r5,r4]
;;;899             s[j] = c;
0005d8  5429              STRB     r1,[r5,r0]
0005da  1e40              SUBS     r0,r0,#1
0005dc  1c64              ADDS     r4,r4,#1
                  |L1.1502|
0005de  4284              CMP      r4,r0                 ;896
0005e0  dbf7              BLT      |L1.1490|
;;;900         }
;;;901     }
0005e2  bd70              POP      {r4-r6,pc}
;;;902    
                          ENDP

                  itoa PROC
;;;903    
;;;904     void itoa(int n, char s[])
0005e4  b430              PUSH     {r4,r5}
;;;905     {
0005e6  0002              MOVS     r2,r0
;;;906         int i, sign;
;;;907     
;;;908         if ((sign = n) < 0)  
0005e8  4605              MOV      r5,r0
0005ea  d500              BPL      |L1.1518|
;;;909             n = -n;         
0005ec  426a              RSBS     r2,r5,#0
                  |L1.1518|
;;;910         i = 0;
0005ee  2000              MOVS     r0,#0
;;;911         do {       
;;;912             s[i++] = n % 10 + '0';   
0005f0  230a              MOVS     r3,#0xa
                  |L1.1522|
0005f2  fb92f4f3          SDIV     r4,r2,r3
0005f6  fb032414          MLS      r4,r3,r4,r2
;;;913         } while ((n /= 10) > 0);    
0005fa  fb92f2f3          SDIV     r2,r2,r3
0005fe  3430              ADDS     r4,r4,#0x30           ;912
000600  540c              STRB     r4,[r1,r0]            ;912
000602  1c40              ADDS     r0,r0,#1
000604  2a00              CMP      r2,#0
000606  dcf4              BGT      |L1.1522|
;;;914         if (sign < 0)
000608  2d00              CMP      r5,#0
00060a  da02              BGE      |L1.1554|
;;;915             s[i++] = '-';
00060c  222d              MOVS     r2,#0x2d
00060e  540a              STRB     r2,[r1,r0]
000610  1c40              ADDS     r0,r0,#1
                  |L1.1554|
;;;916         s[i] = '\0';
000612  2200              MOVS     r2,#0
000614  540a              STRB     r2,[r1,r0]
;;;917         reverse(s);
000616  bc30              POP      {r4,r5}
000618  4608              MOV      r0,r1
00061a  e7fe              B        reverse
;;;918     }
;;;919    
                          ENDP

                  Transf PROC
;;;922    
;;;923     void Transf( char s[]) 
00061c  b510              PUSH     {r4,lr}
;;;924       {
00061e  4604              MOV      r4,r0
;;;925             sendT(s);    //uart1
000620  f7fffffe          BL       sendT
;;;926            sendT2(s);   //uart2
000624  4620              MOV      r0,r4
000626  e8bd4010          POP      {r4,lr}
00062a  e7fe              B        sendT2
;;;927        }
;;;928       
                          ENDP

                  ZTransf PROC
;;;929    
;;;930     void ZTransf( char s[],unsigned char a) 
00062c  b570              PUSH     {r4-r6,lr}
;;;931       {
00062e  460c              MOV      r4,r1
000630  4605              MOV      r5,r0
;;;932          zputs (s,a);
000632  f7fffffe          BL       zputs
;;;933          zputs2(s,a);
000636  4621              MOV      r1,r4
000638  4628              MOV      r0,r5
00063a  e8bd4070          POP      {r4-r6,lr}
00063e  e7fe              B        zputs2
;;;934        }
;;;935          
                          ENDP

                  fillBuf PROC
;;;937    
;;;938    void fillBuf ( char* ptrBuf, unsigned short lengthBuf, unsigned char symb )
000640  2300              MOVS     r3,#0
;;;939       { unsigned short i;
;;;940    
;;;941         for ( i=0; i < lengthBuf; i++ )
;;;942          {
;;;943            *ptrBuf=symb; ptrBuf++;
000642  b252              SXTB     r2,r2
000644  e003              B        |L1.1614|
                  |L1.1606|
000646  1c5b              ADDS     r3,r3,#1
000648  f8002b01          STRB     r2,[r0],#1
00064c  b29b              UXTH     r3,r3                 ;941
                  |L1.1614|
00064e  428b              CMP      r3,r1                 ;941
000650  d3f9              BCC      |L1.1606|
;;;944          }
;;;945       }
000652  4770              BX       lr
;;;946    
                          ENDP

                  clearBuf PROC
;;;947      void clearBuf ( char* ptrBuf, unsigned short lengthBuf )
000654  2220              MOVS     r2,#0x20
;;;948       {  fillBuf( ptrBuf, lengthBuf, ' ' );
000656  e7fe              B        fillBuf
;;;949       }
;;;950          
                          ENDP

                  getStr PROC
;;;951    
;;;952       int getStr (  char* s, unsigned char*ps_size )
000658  b570              PUSH     {r4-r6,lr}
;;;953        { unsigned char* temp;
;;;954          temp=pRcv_Buf;
00065a  4b8a              LDR      r3,|L1.2180|
;;;955          *ps_size=0;
00065c  2500              MOVS     r5,#0
00065e  6b9a              LDR      r2,[r3,#0x38]  ; pRcv_Buf
000660  700d              STRB     r5,[r1,#0]
;;;956          if ( pcur_Rcv <  temp ){
000662  6bdc              LDR      r4,[r3,#0x3c]  ; pcur_Rcv
000664  4294              CMP      r4,r2
000666  d20c              BCS      |L1.1666|
;;;957            
;;;958       
;;;959            //*ps_size=temp-pcur_Rcv;
;;;960            *ps_size=1;
000668  2401              MOVS     r4,#1
00066a  700c              STRB     r4,[r1,#0]
;;;961            while(pcur_Rcv <  temp)
00066c  6bd9              LDR      r1,[r3,#0x3c]  ; pcur_Rcv
00066e  e005              B        |L1.1660|
                  |L1.1648|
;;;962              {*s=*pcur_Rcv; s++; pcur_Rcv++;}
000670  7809              LDRB     r1,[r1,#0]
000672  f8001b01          STRB     r1,[r0],#1
000676  6bd9              LDR      r1,[r3,#0x3c]  ; pcur_Rcv
000678  1c49              ADDS     r1,r1,#1
00067a  63d9              STR      r1,[r3,#0x3c]  ; pcur_Rcv
                  |L1.1660|
00067c  4291              CMP      r1,r2                 ;961
00067e  d3f7              BCC      |L1.1648|
000680  e017              B        |L1.1714|
                  |L1.1666|
;;;963             
;;;964            }
;;;965           else if  ( temp < pcur_Rcv )
000682  42a2              CMP      r2,r4
000684  d213              BCS      |L1.1710|
;;;966                  {  
;;;967                  
;;;968                    if  ( CyclEnd_flag )
000686  7819              LDRB     r1,[r3,#0]  ; CyclEnd_flag
000688  b189              CBZ      r1,|L1.1710|
;;;969                        { while ( pcur_Rcv != temp )
;;;970                            {*s = *pcur_Rcv; s++;
;;;971                             *ps_size++;
;;;972                             if ( pcur_Rcv == (RcvBuf+ buf_size-1) )
00068a  4e7f              LDR      r6,|L1.2184|
00068c  f10604ff          ADD      r4,r6,#0xff
                  |L1.1680|
000690  6bd9              LDR      r1,[r3,#0x3c]         ;969  ; pcur_Rcv
000692  4291              CMP      r1,r2                 ;969
000694  d00d              BEQ      |L1.1714|
000696  7809              LDRB     r1,[r1,#0]            ;970
000698  f8001b01          STRB     r1,[r0],#1            ;970
00069c  6bd9              LDR      r1,[r3,#0x3c]  ; pcur_Rcv
00069e  42a1              CMP      r1,r4
0006a0  d102              BNE      |L1.1704|
;;;973                               { pcur_Rcv= RcvBuf;
;;;974                                 CyclEnd_flag=0;  
0006a2  63de              STR      r6,[r3,#0x3c]  ; pcur_Rcv
0006a4  701d              STRB     r5,[r3,#0]
0006a6  e7f3              B        |L1.1680|
                  |L1.1704|
0006a8  1c49              ADDS     r1,r1,#1
;;;975                               }
;;;976                              else
;;;977                                pcur_Rcv++;
0006aa  63d9              STR      r1,[r3,#0x3c]  ; pcur_Rcv
0006ac  e7f0              B        |L1.1680|
                  |L1.1710|
;;;978                            }
;;;979                        }
;;;980                      else
;;;981                       {; 
;;;982                        return 1;
;;;983                       }
;;;984                  }
;;;985      
;;;986           else  
;;;987                                return 1;       
0006ae  2001              MOVS     r0,#1
;;;988       
;;;989          return 0;
;;;990        }
0006b0  bd70              POP      {r4-r6,pc}
                  |L1.1714|
0006b2  2000              MOVS     r0,#0                 ;989
0006b4  bd70              POP      {r4-r6,pc}
;;;991    
                          ENDP

                  Menu PROC
;;;996    //--- Terminal configuration ---
;;;997    void Menu()
0006b6  4770              BX       lr
;;;998    
;;;999    {
;;;1000   
;;;1001   }
;;;1002   
                          ENDP

                  Menu1 PROC
;;;1003   
;;;1004   void Menu1()
0006b8  b510              PUSH     {r4,lr}
;;;1005    
;;;1006    {
;;;1007   //***************************************************************************
;;;1008   
;;;1009       int i;
;;;1010   	
;;;1011    
;;;1012       for (i=0; i< 3; i++) Transf("\r");    // очистка терминала
0006ba  2400              MOVS     r4,#0
                  |L1.1724|
0006bc  a073              ADR      r0,|L1.2188|
0006be  f7fffffe          BL       Transf
0006c2  1c64              ADDS     r4,r4,#1
0006c4  2c03              CMP      r4,#3
0006c6  dbf9              BLT      |L1.1724|
;;;1013   	for (i=0; i<15; i++) Transf ("*");  // вывод приветствия
0006c8  2400              MOVS     r4,#0
                  |L1.1738|
0006ca  a071              ADR      r0,|L1.2192|
0006cc  f7fffffe          BL       Transf
0006d0  1c64              ADDS     r4,r4,#1
0006d2  2c0f              CMP      r4,#0xf
0006d4  dbf9              BLT      |L1.1738|
;;;1014   	
;;;1015   	Transf("\r");
0006d6  a06d              ADR      r0,|L1.2188|
0006d8  f7fffffe          BL       Transf
;;;1016   	Transf("\r");
0006dc  a06b              ADR      r0,|L1.2188|
0006de  f7fffffe          BL       Transf
;;;1017   	Transf("\r");
0006e2  a06a              ADR      r0,|L1.2188|
0006e4  f7fffffe          BL       Transf
;;;1018   	Transf("\r");
0006e8  a068              ADR      r0,|L1.2188|
0006ea  f7fffffe          BL       Transf
;;;1019   	Transf("......Terminal ФОЧ-1 Комплекция-12....\r");
0006ee  a069              ADR      r0,|L1.2196|
0006f0  f7fffffe          BL       Transf
;;;1020   	Transf("\r");
0006f4  a065              ADR      r0,|L1.2188|
0006f6  f7fffffe          BL       Transf
;;;1021   	Transf("\r");
0006fa  a064              ADR      r0,|L1.2188|
0006fc  f7fffffe          BL       Transf
;;;1022   	Transf("\r");
000700  a062              ADR      r0,|L1.2188|
000702  f7fffffe          BL       Transf
;;;1023   	Transf("MENU :\r");
000706  a06d              ADR      r0,|L1.2236|
000708  f7fffffe          BL       Transf
;;;1024   	Transf("-------\r");
00070c  a06d              ADR      r0,|L1.2244|
00070e  f7fffffe          BL       Transf
;;;1025   	Transf("~ - стартовый байт\r");
000712  a06f              ADR      r0,|L1.2256|
000714  f7fffffe          BL       Transf
;;;1026   	Transf("1 - адрес абонента\r");
000718  a072              ADR      r0,|L1.2276|
00071a  f7fffffe          BL       Transf
;;;1027   	Transf("start_TCP -  команда\r");
00071e  a076              ADR      r0,|L1.2296|
000720  f7fffffe          BL       Transf
;;;1028   	Transf("=30000000 - данные команды\r");
000724  a07a              ADR      r0,|L1.2320|
000726  f7fffffe          BL       Transf
;;;1029   	Transf(";- конец пачки \r");
00072a  a080              ADR      r0,|L1.2348|
00072c  f7fffffe          BL       Transf
;;;1030   	Transf(".............. \r");
000730  a083              ADR      r0,|L1.2368|
000732  f7fffffe          BL       Transf
;;;1031   	Transf("Адреса: \r");
000736  a087              ADR      r0,|L1.2388|
000738  f7fffffe          BL       Transf
;;;1032   	Transf("1 - 1У-К6xx   , синхронизатор мастер: \r");
00073c  a088              ADR      r0,|L1.2400|
00073e  f7fffffe          BL       Transf
;;;1033   	Transf("2 - 1У-К6xx-1 , синхронизатор резерв\r");
000742  a091              ADR      r0,|L1.2440|
000744  f7fffffe          BL       Transf
;;;1034   	Transf("3 - 1У-К6xx , синтезатор частоты излучения  \r");
000748  a099              ADR      r0,|L1.2480|
00074a  f7fffffe          BL       Transf
;;;1035   	Transf("4 - 1У-К6xx , синтезатор частоты гетеродина  \r");
00074e  a0a4              ADR      r0,|L1.2528|
000750  f7fffffe          BL       Transf
;;;1036   	Transf("6 - 1У-К6xx , ФОЧ  \r");
000754  a0ae              ADR      r0,|L1.2576|
000756  f7fffffe          BL       Transf
;;;1037   	Transf("+++++++++++++++++++\r");
00075a  a0b3              ADR      r0,|L1.2600|
00075c  f7fffffe          BL       Transf
;;;1038   	Transf("~1 watch_reg_ФАПЧ1;\r");
000760  a0b7              ADR      r0,|L1.2624|
000762  f7fffffe          BL       Transf
;;;1039   	Transf("~1 watch_reg_ФАПЧ2;\r");
000766  a0bc              ADR      r0,|L1.2648|
000768  f7fffffe          BL       Transf
;;;1040   	/*
;;;1041   	sendT("~1 id_dds;\r\n");
;;;1042   	sendT("~1 wrn_dds_1;\r\n");
;;;1043   	sendT("~1 wrn_dds_0;\r\n");
;;;1044   	sendT("~1 init_dds;\r\n");
;;;1045   	sendT("~1 rd_dds;\r\n");
;;;1046   	sendT("~1 wr_dds=1;\r\n");
;;;1047   	sendT("~1 rd_tst;\r\n");
;;;1048   	sendT("~1 wr_tst=1;\r\n");
;;;1049   	*/
;;;1050     
;;;1051   	Transf("~1 ФАПЧ1_Kdiv1();\r");
00076c  a0c0              ADR      r0,|L1.2672|
00076e  f7fffffe          BL       Transf
;;;1052   	Transf("~1 ФАПЧ2_Kdiv1();\r");
000772  a0c4              ADR      r0,|L1.2692|
000774  f7fffffe          BL       Transf
;;;1053   
;;;1054   	Transf("~1 ФАПЧ1_Kdiv2();\r");
000778  a0c7              ADR      r0,|L1.2712|
00077a  f7fffffe          BL       Transf
;;;1055   	Transf("~1 ФАПЧ2_Kdiv2();\r");
00077e  a0cb              ADR      r0,|L1.2732|
000780  f7fffffe          BL       Transf
;;;1056   
;;;1057   	Transf("~1 help;\r");
000784  a0ce              ADR      r0,|L1.2752|
000786  f7fffffe          BL       Transf
;;;1058   	Transf("~1 SPI_send():0x55;\r");
00078a  a0d0              ADR      r0,|L1.2764|
00078c  f7fffffe          BL       Transf
;;;1059   	
;;;1060   	/*
;;;1061   	sendT("~1 config_Ethernet;\r\n");
;;;1062   	sendT("~1 состояние;\r\n");
;;;1063   	sendT("~1 включить;\r\n");
;;;1064   	sendT("~1 выключить;\r\n");
;;;1065   	sendT("~1 UDP_TCP_test;\r\n");
;;;1066   	sendT("~1 синхросигналы;\r\n");
;;;1067   	sendT("~1 PPI_пачка_К612;\r\n");
;;;1068   	sendT("~1 PPI_пачка_К613;\r\n");
;;;1069   	*/
;;;1070   	
;;;1071   	Transf("~1 ФАПЧ1_init;\r");
000790  a0d4              ADR      r0,|L1.2788|
000792  f7fffffe          BL       Transf
;;;1072   	Transf("~1 ФАПЧ2_init;\r");
000796  a0d7              ADR      r0,|L1.2804|
000798  f7fffffe          BL       Transf
;;;1073   	Transf("~1 Включить_синтезатор;\r");
00079c  a0d9              ADR      r0,|L1.2820|
00079e  f7fffffe          BL       Transf
;;;1074   
;;;1075   	Transf("~1 Индикация_состояния_синтезатора;\r");
0007a2  a0df              ADR      r0,|L1.2848|
0007a4  f7fffffe          BL       Transf
;;;1076   	/*
;;;1077   	sendT("~1 Включить_ЛЧМ_UP;\r\n");
;;;1078   	sendT("~1 Включить_ЛЧМ_DOWN;\r\n");
;;;1079   	*/
;;;1080   	Transf("~1 Установить_Амплитуду=0;\r");
0007a8  a0e7              ADR      r0,|L1.2888|
0007aa  f7fffffe          BL       Transf
;;;1081   	/*
;;;1082   	sendT("~1 Установить_F0=60000000;\r\n");
;;;1083   	sendT("~1 Установить_ЛЧМ;\r\n");
;;;1084   	sendT("~1 Частота_повторения_Fимп=100;\r\n");
;;;1085   	sendT("~1 Длительность_импульса_Tимп=100;\r\n");
;;;1086   	sendT("~1 Установить_частоту_F_low=430000000;\r\n");
;;;1087   	sendT("~1 Установить_частоту_F_high=440000000;\r\n");
;;;1088   	*/
;;;1089   	/*
;;;1090   	sendT("~3 Подвинуть_частоту_вверх=100000;\r\n");
;;;1091   	sendT("~3 Подвинуть_частоту_вниз=100000;\r\n");
;;;1092   	sendT("~3 Подвинуть_фазу_вверх;\r\n");
;;;1093   	sendT("~3 Подвинуть_фазу_вниз;\r\n");
;;;1094   	sendT("~3 Подвинуть_амплитуду_вверх;\r\n");
;;;1095   	sendT("~3 Подвинуть_амплитуду_вниз;\r\n");
;;;1096   	sendT("~1 сигнал_авария_ON;\r\n");
;;;1097   	sendT("~1 сигнал_авария_OFF;\r\n");
;;;1098   	sendT("~1 SPORT_data;\r\n");
;;;1099   	sendT("~3 показать_спектр;\r\n");
;;;1100       sendT("~3 стоп_спектр;\r\n");
;;;1101    */
;;;1102    /*
;;;1103       sendT("~6 F64(on);\r\n");
;;;1104       sendT("~6 F64(off);\r\n");
;;;1105       sendT("~6 F160(on);\r\n");
;;;1106       sendT("~6 F160(off);\r\n"); 
;;;1107       sendT("~6 F360(on);\r\n");
;;;1108       sendT("~6 F360(off);\r\n");
;;;1109       sendT("~6 F400(on);\r\n");
;;;1110       sendT("~6 F400(off);\r\n");   
;;;1111     */
;;;1112     
;;;1113       Transf("~1 ADC=1;  проверка ADC микроконтроллера\r");
0007ae  a0ed              ADR      r0,|L1.2916|
0007b0  f7fffffe          BL       Transf
;;;1114     /*sendT("~6 сигналы_контроля;\r\n");  
;;;1115       sendT("~6 контроль_уровней;\r\n");
;;;1116       sendT("~6 массив_ДБм;\r\n");
;;;1117   	sendT("~6 init_K611;\r\n");
;;;1118   	sendT("~1 K611;\r\n");
;;;1119   	sendT("~5 INPORT:xxxxxx;\r\n");
;;;1120   	sendT("~5 OUTPORT:xxxxxx;\r\n");
;;;1121   	*/
;;;1122   	Transf("\r");
0007b4  a035              ADR      r0,|L1.2188|
0007b6  f7fffffe          BL       Transf
;;;1123   	Transf("\r");
0007ba  a034              ADR      r0,|L1.2188|
0007bc  f7fffffe          BL       Transf
;;;1124   	Transf("++++++++++++++++++++\r\n");
0007c0  a0f3              ADR      r0,|L1.2960|
0007c2  f7fffffe          BL       Transf
;;;1125   	Transf("\r");
0007c6  a031              ADR      r0,|L1.2188|
0007c8  f7fffffe          BL       Transf
;;;1126   	Transf("\r");
0007cc  a02f              ADR      r0,|L1.2188|
0007ce  f7fffffe          BL       Transf
;;;1127   	//for (i=0; i<64; i++) zputs ("*",1);  // вывод приветствия
;;;1128   	//for (i=0;i<10;i++) puts("\r",1);  // очистка терминала
;;;1129   	sendT("\r");
0007d2  e8bd4010          POP      {r4,lr}
0007d6  a02d              ADR      r0,|L1.2188|
0007d8  e7fe              B        sendT
;;;1130   	//*******************************************************************************
;;;1131   	
;;;1132   	}
;;;1133   
                          ENDP

                  reg_FAPCH_watch PROC
;;;1134   void reg_FAPCH_watch (reg_1508pl10 a)
0007da  b510              PUSH     {r4,lr}
;;;1135   {
0007dc  460c              MOV      r4,r1
;;;1136     Transf ("Индикация структуры бит ФАПЧ:");
0007de  a0f2              ADR      r0,|L1.2984|
0007e0  f7fffffe          BL       Transf
0007e4  b264              SXTB     r4,r4
;;;1137   
;;;1138     if (a.Name[4]=='1') Transf ("ФАПЧ1\r");
0007e6  2c31              CMP      r4,#0x31
0007e8  d102              BNE      |L1.2032|
0007ea  a0f7              ADR      r0,|L1.3016|
0007ec  f7fffffe          BL       Transf
                  |L1.2032|
;;;1139     if (a.Name[4]=='2') Transf ("ФАПЧ2\r");
0007f0  2c32              CMP      r4,#0x32
0007f2  d102              BNE      |L1.2042|
0007f4  a0f6              ADR      r0,|L1.3024|
0007f6  f7fffffe          BL       Transf
                  |L1.2042|
;;;1140     Transf("\r");
0007fa  e8bd4010          POP      {r4,lr}
0007fe  a023              ADR      r0,|L1.2188|
000800  e7fe              B        Transf
;;;1141   
;;;1142   }
;;;1143   
                          ENDP

                  Kdiv1 PROC
;;;1144   void Kdiv1(unsigned int dFo1,reg_1508pl10 *a)
000802  b570              PUSH     {r4-r6,lr}
;;;1145   {
000804  4605              MOV      r5,r0
000806  460c              MOV      r4,r1
;;;1146   
;;;1147      Transf("\r");
000808  a020              ADR      r0,|L1.2188|
00080a  f7fffffe          BL       Transf
;;;1148      Transf ("..установка кода Kdiv1:");
00080e  a0f2              ADR      r0,|L1.3032|
000810  f7fffffe          BL       Transf
;;;1149      sprintf(strng,"%d",dFo1);
000814  462a              MOV      r2,r5
000816  a1f6              ADR      r1,|L1.3056|
000818  48f6              LDR      r0,|L1.3060|
00081a  f7fffffe          BL       __2sprintf
;;;1150      Transf(strng);
00081e  48f5              LDR      r0,|L1.3060|
000820  f7fffffe          BL       Transf
;;;1151      Transf("\r");
000824  a019              ADR      r0,|L1.2188|
000826  f7fffffe          BL       Transf
;;;1152   
;;;1153     if (a->Name[4]=='1') Transf ("ФАПЧ1\r");
00082a  7920              LDRB     r0,[r4,#4]
00082c  2831              CMP      r0,#0x31
00082e  d102              BNE      |L1.2102|
000830  a0e5              ADR      r0,|L1.3016|
000832  f7fffffe          BL       Transf
                  |L1.2102|
;;;1154     if (a->Name[4]=='2') Transf ("ФАПЧ2\r");
000836  7920              LDRB     r0,[r4,#4]
000838  2832              CMP      r0,#0x32
00083a  d102              BNE      |L1.2114|
00083c  a0e4              ADR      r0,|L1.3024|
00083e  f7fffffe          BL       Transf
                  |L1.2114|
;;;1155     Transf("\r");
000842  a012              ADR      r0,|L1.2188|
000844  f7fffffe          BL       Transf
;;;1156   
;;;1157          if (dFo1==10)  {
000848  2d0a              CMP      r5,#0xa
00084a  d00c              BEQ      |L1.2150|
;;;1158                           a->KREF4=0;
;;;1159                           a->KREF3=0;
;;;1160                         } else
;;;1161                                   
;;;1162          if (dFo1==80)  {
00084c  2d50              CMP      r5,#0x50
00084e  d00e              BEQ      |L1.2158|
;;;1163                           a->KREF4=0;
;;;1164                           a->KREF3=1;
;;;1165                         } else
;;;1166          if (dFo1==100) {
000850  2d64              CMP      r5,#0x64
000852  d00d              BEQ      |L1.2160|
;;;1167                           a->KREF4=1;
;;;1168                           a->KREF3=0;
;;;1169                         } else
;;;1170          if (dFo1==125) {
000854  2d7d              CMP      r5,#0x7d
000856  d00c              BEQ      |L1.2162|
;;;1171                           a->KREF4=1;
;;;1172                           a->KREF3=1;
;;;1173                         } else Transf ("..Kdiv1 - НЕТ ТАКОГО КОДА!!!...\r");
000858  a0e7              ADR      r0,|L1.3064|
00085a  f7fffffe          BL       Transf
                  |L1.2142|
;;;1174                                              
;;;1175    Transf("\r");
00085e  e8bd4070          POP      {r4-r6,lr}
000862  a00a              ADR      r0,|L1.2188|
000864  e7fe              B        Transf
                  |L1.2150|
000866  79a0              LDRB     r0,[r4,#6]            ;1158
000868  f0200020          BIC      r0,r0,#0x20           ;1158
00086c  e1dd              B        |L1.3114|
                  |L1.2158|
00086e  e1d5              B        |L1.3100|
                  |L1.2160|
000870  e1d8              B        |L1.3108|
                  |L1.2162|
000872  e1dd              B        |L1.3120|
                  |L1.2164|
                          DCD      0x40030000
                  |L1.2168|
                          DCD      0x40038000
                  |L1.2172|
                          DCD      0x400a8000
                  |L1.2176|
                          DCD      0x400b8000
                  |L1.2180|
                          DCD      ||area_number.15||
                  |L1.2184|
                          DCD      ||.bss||+0x148
                  |L1.2188|
00088c  0d00              DCB      "\r",0
00088e  00                DCB      0
00088f  00                DCB      0
                  |L1.2192|
000890  2a00              DCB      "*",0
000892  00                DCB      0
000893  00                DCB      0
                  |L1.2196|
000894  2e2e2e2e          DCB      "......Terminal ",212,206,215,"-1 ",202,238,236,239,235,229
000898  2e2e5465
00089c  726d696e
0008a0  616c20d4
0008a4  ced72d31
0008a8  20caeeec
0008ac  efebe5  
0008af  eaf6e8ff          DCB      234,246,232,255,"-12....\r",0
0008b3  2d31322e
0008b7  2e2e2e0d
0008bb  00      
                  |L1.2236|
0008bc  4d454e55          DCB      "MENU :\r",0
0008c0  203a0d00
                  |L1.2244|
0008c4  2d2d2d2d          DCB      "-------\r",0
0008c8  2d2d2d0d
0008cc  00      
0008cd  00                DCB      0
0008ce  00                DCB      0
0008cf  00                DCB      0
                  |L1.2256|
0008d0  7e202d20          DCB      "~ - ",241,242,224,240,242,238,226,251,233," ",225,224,233
0008d4  f1f2e0f0
0008d8  f2eee2fb
0008dc  e920e1e0
0008e0  e9      
0008e1  f20d00            DCB      242,"\r",0
                  |L1.2276|
0008e4  31202d20          DCB      "1 - ",224,228,240,229,241," ",224,225,238,237,229,237,242
0008e8  e0e4f0e5
0008ec  f120e0e1
0008f0  eeede5ed
0008f4  f2      
0008f5  e00d00            DCB      224,"\r",0
                  |L1.2296|
0008f8  73746172          DCB      "start_TCP -  ",234,238,236,224,237,228,224,"\r",0
0008fc  745f5443
000900  50202d20
000904  20eaeeec
000908  e0ede4e0
00090c  0d00    
00090e  00                DCB      0
00090f  00                DCB      0
                  |L1.2320|
000910  3d333030          DCB      "=30000000 - ",228,224,237,237,251,229," ",234,238,236,224
000914  30303030
000918  30202d20
00091c  e4e0eded
000920  fbe520ea
000924  eeece0  
000927  ede4fb0d          DCB      237,228,251,"\r",0
00092b  00      
                  |L1.2348|
00092c  3b2d20ea          DCB      ";- ",234,238,237,229,246," ",239,224,247,234,232," \r",0
000930  eeede5f6
000934  20efe0f7
000938  eae8200d
00093c  00      
00093d  00                DCB      0
00093e  00                DCB      0
00093f  00                DCB      0
                  |L1.2368|
000940  2e2e2e2e          DCB      ".............. \r",0
000944  2e2e2e2e
000948  2e2e2e2e
00094c  2e2e200d
000950  00      
000951  00                DCB      0
000952  00                DCB      0
000953  00                DCB      0
                  |L1.2388|
000954  c0e4f0e5          DCB      192,228,240,229,241,224,": \r",0
000958  f1e03a20
00095c  0d00    
00095e  00                DCB      0
00095f  00                DCB      0
                  |L1.2400|
000960  31202d20          DCB      "1 - 1",211,"-",202,"6xx   , ",241,232,237,245,240,238,237
000964  31d32dca
000968  36787820
00096c  20202c20
000970  f1e8edf5
000974  f0eeed  
000977  e8e7e0f2          DCB      232,231,224,242,238,240," ",236,224,241,242,229,240,": \r"
00097b  eef020ec
00097f  e0f1f2e5
000983  f03a200d
000987  00                DCB      0
                  |L1.2440|
000988  32202d20          DCB      "2 - 1",211,"-",202,"6xx-1 , ",241,232,237,245,240,238,237
00098c  31d32dca
000990  3678782d
000994  31202c20
000998  f1e8edf5
00099c  f0eeed  
00099f  e8e7e0f2          DCB      232,231,224,242,238,240," ",240,229,231,229,240,226,"\r",0
0009a3  eef020f0
0009a7  e5e7e5f0
0009ab  e20d00  
0009ae  00                DCB      0
0009af  00                DCB      0
                  |L1.2480|
0009b0  33202d20          DCB      "3 - 1",211,"-",202,"6xx , ",241,232,237,242,229,231,224
0009b4  31d32dca
0009b8  36787820
0009bc  2c20f1e8
0009c0  edf2e5e7
0009c4  e0      
0009c5  f2eef020          DCB      242,238,240," ",247,224,241,242,238,242,251," ",232,231,235
0009c9  f7e0f1f2
0009cd  eef2fb20
0009d1  e8e7eb  
0009d4  f3f7e5ed          DCB      243,247,229,237,232,255,"  \r",0
0009d8  e8ff2020
0009dc  0d00    
0009de  00                DCB      0
0009df  00                DCB      0
                  |L1.2528|
0009e0  34202d20          DCB      "4 - 1",211,"-",202,"6xx , ",241,232,237,242,229,231,224
0009e4  31d32dca
0009e8  36787820
0009ec  2c20f1e8
0009f0  edf2e5e7
0009f4  e0      
0009f5  f2eef020          DCB      242,238,240," ",247,224,241,242,238,242,251," ",227,229,242
0009f9  f7e0f1f2
0009fd  eef2fb20
000a01  e3e5f2  
000a04  e5f0eee4          DCB      229,240,238,228,232,237,224,"  \r",0
000a08  e8ede020
000a0c  200d00  
000a0f  00                DCB      0
                  |L1.2576|
000a10  36202d20          DCB      "6 - 1",211,"-",202,"6xx , ",212,206,215,"  \r",0
000a14  31d32dca
000a18  36787820
000a1c  2c20d4ce
000a20  d720200d
000a24  00      
000a25  00                DCB      0
000a26  00                DCB      0
000a27  00                DCB      0
                  |L1.2600|
000a28  2b2b2b2b          DCB      "+++++++++++++++++++\r",0
000a2c  2b2b2b2b
000a30  2b2b2b2b
000a34  2b2b2b2b
000a38  2b2b2b0d
000a3c  00      
000a3d  00                DCB      0
000a3e  00                DCB      0
000a3f  00                DCB      0
                  |L1.2624|
000a40  7e312077          DCB      "~1 watch_reg_",212,192,207,215,"1;\r",0
000a44  61746368
000a48  5f726567
000a4c  5fd4c0cf
000a50  d7313b0d
000a54  00      
000a55  00                DCB      0
000a56  00                DCB      0
000a57  00                DCB      0
                  |L1.2648|
000a58  7e312077          DCB      "~1 watch_reg_",212,192,207,215,"2;\r",0
000a5c  61746368
000a60  5f726567
000a64  5fd4c0cf
000a68  d7323b0d
000a6c  00      
000a6d  00                DCB      0
000a6e  00                DCB      0
000a6f  00                DCB      0
                  |L1.2672|
000a70  7e3120d4          DCB      "~1 ",212,192,207,215,"1_Kdiv1();\r",0
000a74  c0cfd731
000a78  5f4b6469
000a7c  76312829
000a80  3b0d00  
000a83  00                DCB      0
                  |L1.2692|
000a84  7e3120d4          DCB      "~1 ",212,192,207,215,"2_Kdiv1();\r",0
000a88  c0cfd732
000a8c  5f4b6469
000a90  76312829
000a94  3b0d00  
000a97  00                DCB      0
                  |L1.2712|
000a98  7e3120d4          DCB      "~1 ",212,192,207,215,"1_Kdiv2();\r",0
000a9c  c0cfd731
000aa0  5f4b6469
000aa4  76322829
000aa8  3b0d00  
000aab  00                DCB      0
                  |L1.2732|
000aac  7e3120d4          DCB      "~1 ",212,192,207,215,"2_Kdiv2();\r",0
000ab0  c0cfd732
000ab4  5f4b6469
000ab8  76322829
000abc  3b0d00  
000abf  00                DCB      0
                  |L1.2752|
000ac0  7e312068          DCB      "~1 help;\r",0
000ac4  656c703b
000ac8  0d00    
000aca  00                DCB      0
000acb  00                DCB      0
                  |L1.2764|
000acc  7e312053          DCB      "~1 SPI_send():0x55;\r",0
000ad0  50495f73
000ad4  656e6428
000ad8  293a3078
000adc  35353b0d
000ae0  00      
000ae1  00                DCB      0
000ae2  00                DCB      0
000ae3  00                DCB      0
                  |L1.2788|
000ae4  7e3120d4          DCB      "~1 ",212,192,207,215,"1_init;\r",0
000ae8  c0cfd731
000aec  5f696e69
000af0  743b0d00
                  |L1.2804|
000af4  7e3120d4          DCB      "~1 ",212,192,207,215,"2_init;\r",0
000af8  c0cfd732
000afc  5f696e69
000b00  743b0d00
                  |L1.2820|
000b04  7e3120c2          DCB      "~1 ",194,234,235,254,247,232,242,252,"_",241,232,237,242
000b08  eaebfef7
000b0c  e8f2fc5f
000b10  f1e8edf2
000b14  e5e7e0f2          DCB      229,231,224,242,238,240,";\r",0
000b18  eef03b0d
000b1c  00      
000b1d  00                DCB      0
000b1e  00                DCB      0
000b1f  00                DCB      0
                  |L1.2848|
000b20  7e3120c8          DCB      "~1 ",200,237,228,232,234,224,246,232,255,"_",241,238,241
000b24  ede4e8ea
000b28  e0f6e8ff
000b2c  5ff1eef1
000b30  f2eeffed          DCB      242,238,255,237,232,255,"_",241,232,237,242,229,231,224,242
000b34  e8ff5ff1
000b38  e8edf2e5
000b3c  e7e0f2  
000b3f  eef0e03b          DCB      238,240,224,";\r",0
000b43  0d00    
000b45  00                DCB      0
000b46  00                DCB      0
000b47  00                DCB      0
                  |L1.2888|
000b48  7e3120d3          DCB      "~1 ",211,241,242,224,237,238,226,232,242,252,"_",192,236
000b4c  f1f2e0ed
000b50  eee2e8f2
000b54  fc5fc0ec
000b58  efebe8f2          DCB      239,235,232,242,243,228,243,"=0;\r",0
000b5c  f3e4f33d
000b60  303b0d00
                  |L1.2916|
000b64  7e312041          DCB      "~1 ADC=1;  ",239,240,238,226,229,240,234,224," ADC ",236
000b68  44433d31
000b6c  3b2020ef
000b70  f0eee2e5
000b74  f0eae020
000b78  41444320
000b7c  ec      
000b7d  e8eaf0ee          DCB      232,234,240,238,234,238,237,242,240,238,235,235,229,240,224
000b81  eaeeedf2
000b85  f0eeebeb
000b89  e5f0e0  
000b8c  0d00              DCB      "\r",0
000b8e  00                DCB      0
000b8f  00                DCB      0
                  |L1.2960|
000b90  2b2b2b2b          DCB      "++++++++++++++++++++"
000b94  2b2b2b2b
000b98  2b2b2b2b
000b9c  2b2b2b2b
000ba0  2b2b2b2b
                  |L1.2980|
000ba4  0d0a00            DCB      "\r\n",0
000ba7  00                DCB      0
                  |L1.2984|
000ba8  c8ede4e8          DCB      200,237,228,232,234,224,246,232,255," ",241,242,240,243,234
000bac  eae0f6e8
000bb0  ff20f1f2
000bb4  f0f3ea  
000bb7  f2f3f0fb          DCB      242,243,240,251," ",225,232,242," ",212,192,207,215,":",0
000bbb  20e1e8f2
000bbf  20d4c0cf
000bc3  d73a00  
000bc6  00                DCB      0
000bc7  00                DCB      0
                  |L1.3016|
000bc8  d4c0cfd7          DCB      212,192,207,215,"1\r",0
000bcc  310d00  
000bcf  00                DCB      0
                  |L1.3024|
000bd0  d4c0cfd7          DCB      212,192,207,215,"2\r",0
000bd4  320d00  
000bd7  00                DCB      0
                  |L1.3032|
000bd8  2e2ef3f1          DCB      "..",243,241,242,224,237,238,226,234,224," ",234,238,228
000bdc  f2e0edee
000be0  e2eae020
000be4  eaeee4  
000be7  e0204b64          DCB      224," Kdiv1:",0
000beb  6976313a
000bef  00      
                  |L1.3056|
000bf0  256400            DCB      "%d",0
000bf3  00                DCB      0
                  |L1.3060|
                          DCD      ||.bss||+0x2c8
                  |L1.3064|
000bf8  2e2e4b64          DCB      "..Kdiv1 - ",205,197,210," ",210,192,202,206,195,206," ",202
000bfc  69763120
000c00  2d20cdc5
000c04  d220d2c0
000c08  cacec3ce
000c0c  20ca    
000c0e  cec4c021          DCB      206,196,192,"!!!...\r",0
000c12  21212e2e
000c16  2e0d00  
000c19  00                DCB      0
000c1a  00                DCB      0
000c1b  00                DCB      0
                  |L1.3100|
000c1c  79a0              LDRB     r0,[r4,#6]            ;1163
000c1e  f0200020          BIC      r0,r0,#0x20           ;1163
000c22  e008              B        |L1.3126|
                  |L1.3108|
000c24  79a0              LDRB     r0,[r4,#6]            ;1167
000c26  f0400020          ORR      r0,r0,#0x20           ;1167
                  |L1.3114|
000c2a  f0200040          BIC      r0,r0,#0x40           ;1159
000c2e  e004              B        |L1.3130|
                  |L1.3120|
000c30  79a0              LDRB     r0,[r4,#6]            ;1171
000c32  f0400020          ORR      r0,r0,#0x20           ;1171
                  |L1.3126|
000c36  f0400040          ORR      r0,r0,#0x40           ;1164
                  |L1.3130|
000c3a  71a0              STRB     r0,[r4,#6]            ;1172
000c3c  e60f              B        |L1.2142|
;;;1176   
;;;1177   }
;;;1178   
                          ENDP

                  Kdiv2 PROC
;;;1179   void Kdiv2(unsigned int dFo1,reg_1508pl10 *a)
000c3e  b570              PUSH     {r4-r6,lr}
;;;1180   {
000c40  460c              MOV      r4,r1
000c42  4605              MOV      r5,r0
;;;1181      Transf("\r");
000c44  f2af30bc          ADR      r0,|L1.2188|
000c48  f7fffffe          BL       Transf
;;;1182      Transf ("..установка кода Kdiv2:");
000c4c  a0f7              ADR      r0,|L1.4140|
000c4e  f7fffffe          BL       Transf
;;;1183      sprintf(strng,"%d",dFo1);
000c52  462a              MOV      r2,r5
000c54  f2af0168          ADR      r1,|L1.3056|
000c58  48fa              LDR      r0,|L1.4164|
000c5a  f7fffffe          BL       __2sprintf
;;;1184      Transf(strng);
000c5e  48f9              LDR      r0,|L1.4164|
000c60  f7fffffe          BL       Transf
;;;1185      Transf("\r");
000c64  f2af30dc          ADR      r0,|L1.2188|
000c68  f7fffffe          BL       Transf
;;;1186      
;;;1187     if (a->Name[4]=='1') Transf ("ФАПЧ1\r");
000c6c  7920              LDRB     r0,[r4,#4]
000c6e  2831              CMP      r0,#0x31
000c70  d103              BNE      |L1.3194|
000c72  f2af00ac          ADR      r0,|L1.3016|
000c76  f7fffffe          BL       Transf
                  |L1.3194|
;;;1188     if (a->Name[4]=='2') Transf ("ФАПЧ2\r");
000c7a  7920              LDRB     r0,[r4,#4]
000c7c  2832              CMP      r0,#0x32
000c7e  d103              BNE      |L1.3208|
000c80  f2af00b4          ADR      r0,|L1.3024|
000c84  f7fffffe          BL       Transf
                  |L1.3208|
;;;1189     Transf("\r");
000c88  f2af4000          ADR      r0,|L1.2188|
000c8c  f7fffffe          BL       Transf
;;;1190   
;;;1191   
;;;1192          if (dFo1==160)  {
000c90  2da0              CMP      r5,#0xa0
000c92  d011              BEQ      |L1.3256|
;;;1193                           a->KREF2=0;
;;;1194                           a->KREF1=0;
;;;1195                           a->KREF0=0;
;;;1196                                              } else
;;;1197                                   
;;;1198          if (dFo1== 80)  {
000c94  2d50              CMP      r5,#0x50
000c96  d013              BEQ      |L1.3264|
;;;1199                           a->KREF2=0;
;;;1200                           a->KREF1=0;
;;;1201                           a->KREF0=1;
;;;1202                                              } else
;;;1203          if (dFo1== 40) {
000c98  2d28              CMP      r5,#0x28
000c9a  d017              BEQ      |L1.3276|
;;;1204                           a->KREF2=0;
;;;1205                           a->KREF1=1;
;;;1206                           a->KREF0=0;
;;;1207                                              } else
;;;1208          if (dFo1== 20) {
000c9c  2d14              CMP      r5,#0x14
000c9e  d019              BEQ      |L1.3284|
;;;1209                           a->KREF2=0;
;;;1210                           a->KREF1=1;
;;;1211                           a->KREF0=1;
;;;1212                                              } else
;;;1213          if (dFo1==200) {
000ca0  2dc8              CMP      r5,#0xc8
000ca2  d01b              BEQ      |L1.3292|
;;;1214                           a->KREF2=1;
;;;1215                           a->KREF1=0;
;;;1216                           a->KREF0=0;
;;;1217                                              } else
;;;1218   
;;;1219          if (dFo1==100) {
000ca4  2d64              CMP      r5,#0x64
000ca6  d021              BEQ      |L1.3308|
;;;1220                           a->KREF2=1;
;;;1221                           a->KREF1=0;
;;;1222                           a->KREF0=1;
;;;1223                                              } else
;;;1224          if (dFo1==50) {
000ca8  2d32              CMP      r5,#0x32
000caa  d027              BEQ      |L1.3324|
;;;1225                           a->KREF2=1;
;;;1226                           a->KREF1=1;
;;;1227                           a->KREF0=0;
;;;1228                                              } else
;;;1229          if (dFo1==10) {
000cac  2d0a              CMP      r5,#0xa
000cae  d02f              BEQ      |L1.3344|
;;;1230                           a->KREF2=1;
;;;1231                           a->KREF1=1;
;;;1232                           a->KREF0=1;
;;;1233                                              } else Transf ("..Kdiv2 - НЕТ ТАКОГО КОДА!!!...\r");
000cb0  e8bd4070          POP      {r4-r6,lr}
000cb4  a0e4              ADR      r0,|L1.4168|
000cb6  e7fe              B        Transf
                  |L1.3256|
000cb8  79a0              LDRB     r0,[r4,#6]            ;1193
000cba  f0200080          BIC      r0,r0,#0x80           ;1193
000cbe  e010              B        |L1.3298|
                  |L1.3264|
000cc0  79a0              LDRB     r0,[r4,#6]            ;1199
000cc2  f0200080          BIC      r0,r0,#0x80           ;1199
000cc6  e014              B        |L1.3314|
                  |L1.3272|
000cc8  71e0              STRB     r0,[r4,#7]            ;1195
;;;1234   
;;;1235           // Kdiv1(10,a); 
;;;1236   //------------для других dFo1>200 --------------------- 
;;;1237   
;;;1238   
;;;1239   }
000cca  bd70              POP      {r4-r6,pc}
                  |L1.3276|
000ccc  79a0              LDRB     r0,[r4,#6]            ;1204
000cce  f0200080          BIC      r0,r0,#0x80           ;1204
000cd2  e016              B        |L1.3330|
                  |L1.3284|
000cd4  79a0              LDRB     r0,[r4,#6]            ;1209
000cd6  f0200080          BIC      r0,r0,#0x80           ;1209
000cda  e01c              B        |L1.3350|
                  |L1.3292|
000cdc  79a0              LDRB     r0,[r4,#6]            ;1214
000cde  f0400080          ORR      r0,r0,#0x80           ;1214
                  |L1.3298|
000ce2  71a0              STRB     r0,[r4,#6]            ;1193
000ce4  79e0              LDRB     r0,[r4,#7]            ;1194
000ce6  f0200001          BIC      r0,r0,#1              ;1194
000cea  e00e              B        |L1.3338|
                  |L1.3308|
000cec  79a0              LDRB     r0,[r4,#6]            ;1220
000cee  f0400080          ORR      r0,r0,#0x80           ;1220
                  |L1.3314|
000cf2  71a0              STRB     r0,[r4,#6]            ;1199
000cf4  79e0              LDRB     r0,[r4,#7]            ;1200
000cf6  f0200001          BIC      r0,r0,#1              ;1200
000cfa  e010              B        |L1.3358|
                  |L1.3324|
000cfc  79a0              LDRB     r0,[r4,#6]            ;1225
000cfe  f0400080          ORR      r0,r0,#0x80           ;1225
                  |L1.3330|
000d02  71a0              STRB     r0,[r4,#6]            ;1204
000d04  79e0              LDRB     r0,[r4,#7]            ;1205
000d06  f0400001          ORR      r0,r0,#1              ;1205
                  |L1.3338|
000d0a  f0200002          BIC      r0,r0,#2              ;1227
000d0e  e7db              B        |L1.3272|
                  |L1.3344|
000d10  79a0              LDRB     r0,[r4,#6]            ;1230
000d12  f0400080          ORR      r0,r0,#0x80           ;1230
                  |L1.3350|
000d16  71a0              STRB     r0,[r4,#6]            ;1209
000d18  79e0              LDRB     r0,[r4,#7]            ;1210
000d1a  f0400001          ORR      r0,r0,#1              ;1210
                  |L1.3358|
000d1e  f0400002          ORR      r0,r0,#2              ;1232
000d22  e7d1              B        |L1.3272|
;;;1240   
                          ENDP

                  Kdiv3 PROC
;;;1241   
;;;1242   void Kdiv3(unsigned int dFo1,reg_1508pl10 *a)
000d24  b570              PUSH     {r4-r6,lr}
;;;1243   {
000d26  460c              MOV      r4,r1
000d28  4605              MOV      r5,r0
;;;1244      Transf("\r");
000d2a  f2af40a0          ADR      r0,|L1.2188|
000d2e  f7fffffe          BL       Transf
;;;1245      Transf ("..установка кода Kdiv3:");
000d32  a0ce              ADR      r0,|L1.4204|
000d34  f7fffffe          BL       Transf
;;;1246      sprintf(strng,"%d",dFo1);
000d38  462a              MOV      r2,r5
000d3a  f2af114c          ADR      r1,|L1.3056|
000d3e  48c1              LDR      r0,|L1.4164|
000d40  f7fffffe          BL       __2sprintf
;;;1247      Transf(strng);
000d44  48bf              LDR      r0,|L1.4164|
000d46  f7fffffe          BL       Transf
;;;1248      Transf("\r");
000d4a  f2af40c0          ADR      r0,|L1.2188|
000d4e  f7fffffe          BL       Transf
;;;1249      
;;;1250     if (a->Name[4]=='1') Transf ("ФАПЧ1\r");
000d52  7920              LDRB     r0,[r4,#4]
000d54  2831              CMP      r0,#0x31
000d56  d103              BNE      |L1.3424|
000d58  f2af1094          ADR      r0,|L1.3016|
000d5c  f7fffffe          BL       Transf
                  |L1.3424|
;;;1251     if (a->Name[4]=='2') Transf ("ФАПЧ2\r");
000d60  7920              LDRB     r0,[r4,#4]
000d62  2832              CMP      r0,#0x32
000d64  d103              BNE      |L1.3438|
000d66  f2af1098          ADR      r0,|L1.3024|
000d6a  f7fffffe          BL       Transf
                  |L1.3438|
;;;1252     Transf("\r");
000d6e  f2af40e4          ADR      r0,|L1.2188|
000d72  f7fffffe          BL       Transf
;;;1253   
;;;1254      a->Kosn00_15 =  dFo1;     //младшие 16 бит кода деления основного канала
;;;1255      a->Kosn16_19 = (dFo1>>16);//старшие 4-ре бита кода деления основного канала
000d76  60a5              STR      r5,[r4,#8]
000d78  6860              LDR      r0,[r4,#4]
000d7a  0c29              LSRS     r1,r5,#16
000d7c  f361609d          BFI      r0,r1,#26,#4
000d80  6060              STR      r0,[r4,#4]
;;;1256   
;;;1257   }
000d82  bd70              POP      {r4-r6,pc}
;;;1258   
                          ENDP

                  Sys_indikate PROC
;;;1259   
;;;1260   char Sys_indikate(void)
000d84  4770              BX       lr
;;;1261   
;;;1262   {
;;;1263     char a=0;
;;;1264     unsigned char cond=0;
;;;1265   
;;;1266   
;;;1267   }
;;;1268   
                          ENDP

                  Otvet_3 PROC
;;;1269   void Otvet_3(void)
000d86  b510              PUSH     {r4,lr}
;;;1270   {
;;;1271      otvet_flag=0;
000d88  4cbe              LDR      r4,|L1.4228|
000d8a  2000              MOVS     r0,#0
000d8c  7320              STRB     r0,[r4,#0xc]
;;;1272   				 
;;;1273      TX_485();
000d8e  f7fffffe          BL       TX_485
;;;1274      Transf("\r");
000d92  f2af5008          ADR      r0,|L1.2188|
000d96  f7fffffe          BL       Transf
;;;1275      Transf ("~1 состояние_К611:");
000d9a  a0bb              ADR      r0,|L1.4232|
000d9c  f7fffffe          BL       Transf
;;;1276      sprintf(s3,"%d",flag_status_ZAHVAT);
000da0  7da2              LDRB     r2,[r4,#0x16]  ; flag_status_ZAHVAT
000da2  f2af11b4          ADR      r1,|L1.3056|
000da6  48a7              LDR      r0,|L1.4164|
000da8  3880              SUBS     r0,r0,#0x80
000daa  f7fffffe          BL       __2sprintf
;;;1277      Transf(s3);
000dae  48a5              LDR      r0,|L1.4164|
000db0  3880              SUBS     r0,r0,#0x80
000db2  f7fffffe          BL       Transf
;;;1278      Transf(".");
000db6  a0b9              ADR      r0,|L1.4252|
000db8  f7fffffe          BL       Transf
;;;1279      sprintf(s3,"%d",flag_status_ZAHVAT);
000dbc  7da2              LDRB     r2,[r4,#0x16]  ; flag_status_ZAHVAT
000dbe  f2af11d0          ADR      r1,|L1.3056|
000dc2  48a0              LDR      r0,|L1.4164|
000dc4  3880              SUBS     r0,r0,#0x80
000dc6  f7fffffe          BL       __2sprintf
;;;1280      Transf(s3);
000dca  489e              LDR      r0,|L1.4164|
000dcc  3880              SUBS     r0,r0,#0x80
000dce  f7fffffe          BL       Transf
;;;1281      Transf(";");
000dd2  a0b3              ADR      r0,|L1.4256|
000dd4  f7fffffe          BL       Transf
;;;1282      Transf("\r");
000dd8  f2af5050          ADR      r0,|L1.2188|
000ddc  f7fffffe          BL       Transf
;;;1283      RX_485();
000de0  e8bd4010          POP      {r4,lr}
000de4  f7ffbffe          B.W      RX_485
;;;1284    
;;;1285   }
;;;1286   
                          ENDP

                  ||IO|| PROC
;;;1287   
;;;1288   void IO ( char* sr)      // функция обработки протокола обмена
000de8  e92d5ff0          PUSH     {r4-r12,lr}
;;;1289    
;;;1290    {
000dec  4607              MOV      r7,r0
;;;1291          
;;;1292    unsigned char s[6];   
;;;1293    unsigned char i=0;
;;;1294    unsigned char index=0;
000dee  2300              MOVS     r3,#0
;;;1295    unsigned char dlsr=0;
;;;1296     char z;
;;;1297     char p[1];
;;;1298     unsigned char  z_k611=0;
;;;1299     char sys_char=0;
;;;1300     int l=0;
;;;1301   
;;;1302     unsigned short PF1_var=0;
;;;1303     unsigned short PF2_var=0;
;;;1304     unsigned short PF3_var=0;
;;;1305     unsigned short PF4_var=0;
;;;1306     unsigned int Z_sum=0;
;;;1307     unsigned short temp_short=0;
;;;1308     
;;;1309     
;;;1310      i=leng (sr);
000df0  f7fffffe          BL       leng
;;;1311        
;;;1312      sym1=sr[0];
000df4  f8df928c          LDR      r9,|L1.4228|
000df8  b2c1              UXTB     r1,r0                 ;1310
000dfa  7838              LDRB     r0,[r7,#0]
000dfc  f889000e          STRB     r0,[r9,#0xe]
;;;1313      
;;;1314      p[0]=sym1;
000e00  f899000e          LDRB     r0,[r9,#0xe]  ; sym1
;;;1315         
;;;1316   if ((sym1==0x7e)||(time_uart>100)) 
000e04  f899000e          LDRB     r0,[r9,#0xe]  ; sym1
;;;1317   	{
;;;1318   		time_uart=0;  //обнуление счётчика тайм аута
;;;1319   		packet_flag=1; 
;;;1320   		index1=0; 
;;;1321   		crc=0; 
;;;1322   		crc_ok=0; 
;;;1323   		packet_ok=0; 
;;;1324   		index_word=0; 
;;;1325   		index_data_word =1;
;;;1326       index_data_word2=1;
;;;1327   		data_flag =0;
;;;1328       data_flag2=0;
;;;1329   		DATA_Word [0]=' ';
000e08  f8dfa238          LDR      r10,|L1.4164|
000e0c  2501              MOVS     r5,#1                 ;1319
000e0e  f10a0ac0          ADD      r10,r10,#0xc0
;;;1330       DATA_Word2[0]=' ';
000e12  2600              MOVS     r6,#0
000e14  f10a0b40          ADD      r11,r10,#0x40
000e18  287e              CMP      r0,#0x7e              ;1316
000e1a  d003              BEQ      |L1.3620|
000e1c  f8d90044          LDR      r0,[r9,#0x44]         ;1316  ; time_uart
000e20  2864              CMP      r0,#0x64              ;1316
000e22  d91a              BLS      |L1.3674|
                  |L1.3620|
000e24  f8c96044          STR      r6,[r9,#0x44]         ;1318  ; time_uart
000e28  f889501c          STRB     r5,[r9,#0x1c]         ;1319
000e2c  f889600d          STRB     r6,[r9,#0xd]          ;1320
000e30  f889601d          STRB     r6,[r9,#0x1d]         ;1321
000e34  f889601e          STRB     r6,[r9,#0x1e]         ;1322
000e38  f889601f          STRB     r6,[r9,#0x1f]         ;1323
000e3c  f8896005          STRB     r6,[r9,#5]            ;1324
000e40  f8895006          STRB     r5,[r9,#6]            ;1325
000e44  f8895007          STRB     r5,[r9,#7]            ;1326
000e48  f8896008          STRB     r6,[r9,#8]            ;1327
000e4c  f8896009          STRB     r6,[r9,#9]            ;1328
000e50  2020              MOVS     r0,#0x20              ;1329
000e52  f88a0000          STRB     r0,[r10,#0]           ;1329
000e56  f88b0000          STRB     r0,[r11,#0]
                  |L1.3674|
;;;1331   		
;;;1332   	} // обнаружено начало пакета
;;;1333   
;;;1334   if (packet_flag==1)
000e5a  f899001c          LDRB     r0,[r9,#0x1c]  ; packet_flag
;;;1335   
;;;1336   { 
;;;1337   
;;;1338   	while (i>0)   //перегрузка принятого пакета в массив обработки
;;;1339   	
;;;1340   	{
;;;1341   
;;;1342   
;;;1343   	   InOut[index1]=sr[index];
000e5e  4c79              LDR      r4,|L1.4164|
000e60  3440              ADDS     r4,r4,#0x40
000e62  2801              CMP      r0,#1                 ;1334
000e64  d07e              BEQ      |L1.3940|
                  |L1.3686|
;;;1344   	   sr[index]=0x0;
;;;1345   	  
;;;1346   	  if  (InOut[index1]==' ')  ink1=ink1+1;
;;;1347   	  
;;;1348   	  if  (InOut[index1]==';')  packet_ok=1;
;;;1349   	  
;;;1350   	  if ((InOut[index1]=='=')||(InOut[index1]==':')) data_flag=1;
;;;1351   
;;;1352       if  (InOut[index1]=='.') data_flag2=1;
;;;1353   
;;;1354   
;;;1355           	  if ((index1>2)&&(InOut[2]==' '))  
;;;1356           		{
;;;1357           		
;;;1358                   		         if  ((InOut[index1]!=' ')&&
;;;1359                                    (InOut[index1]!=';')&&
;;;1360                                    (data_flag!=1))	       Word[index_word]=InOut[index1]; // заполняем командное слово
;;;1361                   		
;;;1362                      
;;;1363                           	   if  ((data_flag==1)&&
;;;1364                                    (InOut[index1]!=' ')&&
;;;1365                                    (InOut[index1]!=';')&&
;;;1366                                    (InOut[index1]!='=')&&
;;;1367                                    (InOut[index1]!=':')&&(data_flag2==0))    	DATA_Word[index_data_word]=InOut[index1]; // заполняем  слово данных1
;;;1368                         
;;;1369                      
;;;1370                                if  ((data_flag==1)&&
;;;1371                                    (InOut[index1]!=' ')&&
;;;1372                                    (InOut[index1]!=';')&&
;;;1373                                    (InOut[index1]!='=')&&
;;;1374                                    (InOut[index1]!=':')&&(data_flag2==1))     DATA_Word2[index_data_word2]=InOut[index1]; // заполняем  слово данных2
;;;1375                   		      
;;;1376                   	   
;;;1377                                if ((data_flag!=1)&&
;;;1378                                    (InOut[index1]!='=')&&
;;;1379                                    (InOut[index1]!=':'))      index_word=index_word+1; 
;;;1380                               		   else 
;;;1381                                               {
;;;1382                                                
;;;1383                                                if ((data_flag==1)&&
;;;1384                                                    (InOut[index1]!='=')&&
;;;1385                                                    (InOut[index1]!=':')&&
;;;1386                                                    (InOut[index1]!='.')&&
;;;1387                                                    (data_flag2==0))      index_data_word=index_data_word+1;
;;;1388                                               
;;;1389                                                if ((data_flag==1)&&
;;;1390                                                    (InOut[index1]!='=')&&
;;;1391                                                    (InOut[index1]!=':')&&
;;;1392                                                    (InOut[index1]!='.')&&
;;;1393                                                    (data_flag2==1))      index_data_word2=index_data_word2+1;
;;;1394                                               }
;;;1395           	  	           
;;;1396           		}
;;;1397   				
;;;1398           		index1=index1+1;
;;;1399           		index =index +1;
;;;1400           		i=i-1;
;;;1401   	
;;;1402   	   }
;;;1403   	
;;;1404   	i=index1;
;;;1405   
;;;1406   	
;;;1407   	
;;;1408   if (packet_ok==1) 
;;;1409   	{
;;;1410   
;;;1411   	
;;;1412   	    if (InOut[0]==0x7e)   crc_ok=crc_ok|0x1;   // проверка первого условия пакета - начало пакета
;;;1413   	  	if (InOut[1]==Adress) crc_ok=crc_ok|0x2;   // проверка второго условия пакета - адресат назначения
;;;1414   		
;;;1415   	if (crc_ok==0x3)  //обработка команд адресатом которых является хозяин 
;;;1416       	{
;;;1417   
;;;1418   
;;;1419                       					if (strcmp(Word,"help")==0)        				      
;;;1420   
;;;1421                       			          {
;;;1422                       			             Transf ("принял help\r"    ); 
;;;1423                       			              Menu1('t');
;;;1424                       			             flag_uart_trcv=0;
;;;1425                       			             sch_pachek_test=1;
;;;1426                       			           }
;;;1427   
;;;1428      
;;;1429                                 if (strcmp(Word,"watch_reg_ФАПЧ1"  )==0)       { Transf ("принял watch_reg_ФАПЧ1\r"  ); reg_FAPCH_watch (reg_FAPCH1); }//чтение и вывод на экран регистров ФАПЧ 
;;;1430   					 		  if (strcmp(Word,"watch_reg_ФАПЧ2"  )==0)       { Transf ("принял watch_reg_ФАПЧ2\r"  ); reg_FAPCH_watch (reg_FAPCH2); }//чтение и вывод на экран регистров ФАПЧ 
;;;1431   
;;;1432                     			  if (strcmp(Word,"ADC"      )==0) 	    //измерить напряжение в канале //проверка ADC микроконтроллера
;;;1433                                       				{ 	dFo1=atoi(DATA_Word);
;;;1434                     								           	Transf ("принял ADC:" );
;;;1435                                       					    sprintf(strng,"%x",dFo1);
;;;1436   															Transf(strng);
;;;1437   															Transf("\r\n");
;;;1438                     									             //ADC_test(dFo1);
;;;1439                     									
;;;1440                                       					 }
;;;1441   	
;;;1442                               if (strcmp(Word,"Установить_Амплитуду"      )==0) 	    //установить частоту F0 синтезатора
;;;1443                           				{ 	dFo1=atoi(DATA_Word);
;;;1444         									        Transf ("принял Установить_Амплитуду:" );
;;;1445                           				        sprintf(strng,"%x",dFo1);
;;;1446   												Transf(strng);
;;;1447   												Transf("\r");
;;;1448   												sendT(strng);
;;;1449   												Transf("\r");
;;;1450   												sendT2(strng);
;;;1451                           					    Transf("\r");
;;;1452         									
;;;1453                           				}   
;;;1454   
;;;1455                           		if (strcmp(Word,"SPI_send()"      )==0) 	    //установить частоту F0 синтезатора
;;;1456                           				{ 	dFo1=atoi(DATA_Word);
;;;1457         								          Transf ("принял SPI_send():" );
;;;1458                           				      sprintf(strng,"%x",dFo1);
;;;1459                           					  Transf(strng);
;;;1460                           					  Transf("\r");
;;;1461   
;;;1462                           					SPI1_send(dFo1);
;;;1463                           					SPI2_send(dFo1);
;;;1464         									
;;;1465                           				}   
;;;1466   
;;;1467                                if (strcmp(Word,"ФАПЧ1_Kdiv1()"      )==0)       //установить частоту F0 синтезатора
;;;1468                                     {   dFo1=atoi(DATA_Word);
;;;1469                                         Transf ("принял ФАПЧ1_Kdiv1():" );
;;;1470                                         sprintf(strng,"%d",dFo1);
;;;1471                                         Transf(strng);
;;;1472                                         Transf("\r");
;;;1473   
;;;1474                                         Kdiv1(dFo1,&reg_FAPCH1);
;;;1475                                         Write_FOCH1 (reg_FAPCH1);
;;;1476                             
;;;1477                                        } 
;;;1478                                if (strcmp(Word,"ФАПЧ2_Kdiv1()"      )==0)       //установить частоту F0 синтезатора
;;;1479                                     {   dFo1=atoi(DATA_Word);
;;;1480                                         Transf ("принял ФАПЧ2_Kdiv1():" );
;;;1481                                         sprintf(strng,"%d",dFo1);
;;;1482                                         Transf(strng);
;;;1483                                         Transf("\r");
;;;1484   
;;;1485                                         Kdiv1(dFo1,&reg_FAPCH2);
;;;1486                                         Write_FOCH2 (reg_FAPCH2);
;;;1487                             
;;;1488                                        } 
;;;1489                             if (strcmp(Word,"ФАПЧ1_Kdiv2()"      )==0)       //установить частоту F0 синтезатора
;;;1490                                     {   dFo1=atoi(DATA_Word);
;;;1491                                         Transf ("принял ФАПЧ1_Kdiv2():" );
;;;1492                                         sprintf(strng,"%d",dFo1);
;;;1493                                         Transf(strng);
;;;1494                                         Transf("\r");
;;;1495   
;;;1496                                         Kdiv2(dFo1,&reg_FAPCH1);
;;;1497                                         Write_FOCH1 (reg_FAPCH1);
;;;1498                             
;;;1499                                        } 
;;;1500                           if (strcmp(Word,"ФАПЧ2_Kdiv2()"      )==0)       //установить частоту F0 синтезатора
;;;1501                                     {   dFo1=atoi(DATA_Word);
;;;1502                                         Transf ("принял ФАПЧ2_Kdiv2():" );
;;;1503                                         sprintf(strng,"%d",dFo1);
;;;1504                                         Transf(strng);
;;;1505                                         Transf("\r");
;;;1506   
;;;1507                                         Kdiv2(dFo1,&reg_FAPCH2);
;;;1508                                         Write_FOCH2 (reg_FAPCH2);
;;;1509                             
;;;1510                                        } 
;;;1511   
;;;1512                           if (strcmp(Word,"ФАПЧ1_Kdiv3()"      )==0)       //установить частоту F0 синтезатора
;;;1513                                     {   dFo1=atoi(DATA_Word);
;;;1514                                         Transf ("принял ФАПЧ1_Kdiv3():" );
;;;1515                                         sprintf(strng,"%d",dFo1);
;;;1516                                         Transf(strng);
;;;1517                                         Transf("\r");
;;;1518   
;;;1519                                         Kdiv3(dFo1,&reg_FAPCH1);
;;;1520                                         Write_FOCH1 (reg_FAPCH1);
;;;1521                             
;;;1522                                        } 
;;;1523                           if (strcmp(Word,"ФАПЧ2_Kdiv3()"      )==0)       //установить частоту F0 синтезатора
;;;1524                                     {   dFo1=atoi(DATA_Word);
;;;1525                                         Transf ("принял ФАПЧ2_Kdiv3():" );
;;;1526                                         sprintf(strng,"%d",dFo1);
;;;1527                                         Transf(strng);
;;;1528                                         Transf("\r");
;;;1529   
;;;1530                                         Kdiv3(dFo1,&reg_FAPCH2);
;;;1531                                         Write_FOCH2 (reg_FAPCH2);
;;;1532                             
;;;1533                                        }  
;;;1534   						if (strcmp(Word,"LD_control")==0)      
;;;1535                                       { 
;;;1536                                         Transf ("принял LD_control\r"   );
;;;1537   
;;;1538                                         if (flag_status_ZAHVAT==0x00) Transf ("Захватов нет\r" );
;;;1539                                         if (flag_status_ZAHVAT==0x01) Transf ("Захват Гетеродина\r" );
;;;1540                                         if (flag_status_ZAHVAT==0x02) Transf ("Захват Синтезатор\r" );
;;;1541                                         if (flag_status_ZAHVAT==0x03) Transf ("Оба в захвате\r" );
;;;1542   
;;;1543                                         Transf ("LD_control():" );
;;;1544                                         sprintf(strng,"%d",flag_status_ZAHVAT);
;;;1545                                         Transf(strng);
;;;1546                                         Transf("\r");
;;;1547   									  
;;;1548   									  Otvet_3();
;;;1549   
;;;1550                                       }; 
;;;1551   									 
;;;1552   
;;;1553                     	    if (strcmp(Word,"ФАПЧ1_init")==0)      { Transf ("принял ФАПЧ1_init\r"   ); Write_FOCH1 (reg_FAPCH1);    };	
;;;1554                     	    if (strcmp(Word,"ФАПЧ2_init")==0)      { Transf ("принял ФАПЧ2_init\r"   ); Write_FOCH2 (reg_FAPCH2);    };
;;;1555   					    if (strcmp(Word,"ФОЧ_init")==0)        { Transf ("принял ФОЧ_init\r"       ); FLAG_INIT_FOCH=0;  };
;;;1556   						
;;;1557   
;;;1558                    	    if (strcmp(Word,"Индикация_состояния_синтезатора")==0)      { Transf ("принял Индикация_состояния_синтезатора\r"   );     }		   
;;;1559                           if (strcmp(Word,"Включить_синтезатор"		     )==0)      { Transf ("принял Включить_синтезатор\r"        		 );     }
;;;1560                
;;;1561   						
;;;1562                           if (strcmp(Word,"сигналы_захвата_1У-К611" )==0) 	   //контроль сигналов захвата кассеты 611
;;;1563                     				{ 
;;;1564                                     crc_comp =atoi(DATA_Word);
;;;1565                                     crc_input=atoi(DATA_Word2);  
;;;1566   
;;;1567                                if (crc_comp==crc_input)
;;;1568                                    {
;;;1569                                           z_k611=atoi(DATA_Word);
;;;1570   
;;;1571                                      //     Transf ("принял сигналы_захвата_1У-К611:" );
;;;1572                                     //      ZTransf (DATA_Word,index_data_word-1);
;;;1573                                     //      Transf("\r\n");
;;;1574   
;;;1575                                           //control_zahvat_K611(z_k611);
;;;1576                                            Flag_zahvat_end_K611=1;
;;;1577                                            tick_process=0;
;;;1578                                           // Flag_K611=0;
;;;1579                                            sch_obmen=0;
;;;1580   
;;;1581                                    }
;;;1582   
;;;1583                             
;;;1584                     					}	
;;;1585                     					
;;;1586                     		if (strcmp(Word,"значение_уровней_1У-К611" )==0) 	   //контроль уровне сигналов кассеты 611
;;;1587                     				{ 
;;;1588   
;;;1589                                     crc_comp =atoi(DATA_Word);
;;;1590                                     crc_input=atoi(DATA_Word2); 
;;;1591   
;;;1592                                if (crc_comp==crc_input)
;;;1593                                    {
;;;1594                                          z_k611=atoi(DATA_Word);
;;;1595                               			//	   Transf ("принял значение_уровней_1У-К611:" );
;;;1596                               			//  	 ZTransf (DATA_Word,index_data_word-1);
;;;1597                                    //      Transf("\r\n");
;;;1598                                         // control_level_K611(z_k611);
;;;1599                               				   Flag_control_end_K611=1;
;;;1600                               				   tick_process=0;
;;;1601                               				  // Flag_K611=0;
;;;1602                               				   sch_obmen=0;
;;;1603                                     }
;;;1604                     					}
;;;1605   
;;;1606                               
;;;1607                     	
;;;1608                     		if (strcmp(Word,"init_K611")==0) 
;;;1609                     		{ 
;;;1610                     	//	Transf ("принял init_K611  \r"  );
;;;1611                     		Flag_init_K611=1;
;;;1612                     		Flag_K611=0;
;;;1613                     		tick_process=0;
;;;1614                     		sch_obmen=0;
;;;1615                     	    tick_process_K611=0;
;;;1616                     		} //принимаем подтверждение на ранее отосланную команду инициализации
;;;1617                     		
;;;1618                     		if (strcmp(Word,"состояние_1У-К611")==0)
;;;1619                     		{ 
;;;1620                     //		Transf ("принял состояние_1У-К611  \r"  );
;;;1621                     		Flag_control_K611=1;
;;;1622                     		//Flag_K611=0;
;;;1623                     		tick_process=0;
;;;1624                     		sch_obmen=0;
;;;1625                     	    tick_process_K611=0;
;;;1626                     				} //принимаем подтверждение на ранее отосланную команду контроля состояния
;;;1627                     		
;;;1628                     		if (strcmp(Word,"сигналы_контроля_1У-К611")==0)
;;;1629                     		{ 
;;;1630                     	//	Transf ("принял сигналы_контроля_1У-К611  \r"  );
;;;1631                     		Flag_zahvat_sig_K611=1;
;;;1632                     		//Flag_K611=0;
;;;1633                     		tick_process=0;
;;;1634                     		sch_obmen=0;
;;;1635                     	    tick_process_K611=0;
;;;1636                     		} //принимаем подтверждение на ранее отосланную команду контроля сигнала захвата
;;;1637                     		
;;;1638                     		if (strcmp(Word,"контроль_уровней_1У-К611")==0)
;;;1639                     		{ 
;;;1640                     	//	Transf ("принял контроль_уровней_1У-К611  \r"  );
;;;1641                     		Flag_control_sig_K611=1;
;;;1642                     		//Flag_K611=0;
;;;1643                     		tick_process=0;
;;;1644                     		sch_obmen=0;
;;;1645                     	    tick_process_K611=0;
;;;1646                     		} //принимаем подтверждение на ранее отосланную команду контроля уровней
;;;1647                     		
;;;1648                     //--------------------------------------------------K612----------------------------------------------------------------				
;;;1649                 
;;;1650                         
;;;1651   		
;;;1652   	    } 
;;;1653   	
;;;1654   	}
;;;1655   	
;;;1656   	if ((packet_ok==1)&&(crc_ok==0x1))     //обработка команд адресатом которых является слейв
;;;1657   
;;;1658   	{
;;;1659   		
;;;1660   	  if (Master_flag==0)
;;;1661   
;;;1662         {/*
;;;1663       
;;;1664           	Transf("\r\n");
;;;1665           	ZTransf (InOut,index1);
;;;1666          // 	Transf("\r\n");
;;;1667          // 	Transf("\r\n");
;;;1668             //    TX_485;	
;;;1669   		*/		  
;;;1670         }
;;;1671   
;;;1672   		
;;;1673   	}
;;;1674   	
;;;1675   	
;;;1676   	if ( packet_ok==1) 
;;;1677   		
;;;1678   		{
;;;1679   		
;;;1680   			for (i=0;i<Bufer_size;i++)        Word[i]     =0x0;
;;;1681   			for (i=0;i<Bufer_size;i++)   DATA_Word[i]     =0x0;
;;;1682   			for (i=0;i<Bufer_size;i++)  DATA_Word2[i]     =0x0;  
;;;1683   			for (i=0;i<Bufer_size;i++)       InOut[i]     =0x0;
;;;1684   		
;;;1685   			time_uart=0;  //обнуление счётчика тайм аута
;;;1686   			packet_flag=0; 
;;;1687   			index1=0; 
;;;1688   			crc=0; 
;;;1689   			crc_ok=0; 
;;;1690   			i=0;
;;;1691   			packet_ok=0; 
;;;1692   			index_word=0; 
;;;1693   			index_data_word=0;
;;;1694   			data_flag=0;
;;;1695   			index_data_word2=0;
;;;1696   			data_flag2=0;
;;;1697   		};
;;;1698   
;;;1699   	}
;;;1700            
;;;1701    } 
000e66  e8bd9ff0          POP      {r4-r12,pc}
                  |L1.3690|
000e6a  5cfa              LDRB     r2,[r7,r3]            ;1343
000e6c  f899c00d          LDRB     r12,[r9,#0xd]         ;1343  ; index1
000e70  4648              MOV      r0,r9                 ;1343
000e72  f804200c          STRB     r2,[r4,r12]           ;1343
000e76  54fe              STRB     r6,[r7,r3]            ;1344
000e78  f899200d          LDRB     r2,[r9,#0xd]          ;1346  ; index1
000e7c  5ca2              LDRB     r2,[r4,r2]            ;1346
000e7e  2a20              CMP      r2,#0x20              ;1346
000e80  d104              BNE      |L1.3724|
000e82  f8902020          LDRB     r2,[r0,#0x20]         ;1346  ; ink1
000e86  1c52              ADDS     r2,r2,#1              ;1346
000e88  f8802020          STRB     r2,[r0,#0x20]         ;1346
                  |L1.3724|
000e8c  7b42              LDRB     r2,[r0,#0xd]          ;1348  ; index1
000e8e  5ca2              LDRB     r2,[r4,r2]            ;1348
000e90  2a3b              CMP      r2,#0x3b              ;1348
000e92  d100              BNE      |L1.3734|
000e94  77c5              STRB     r5,[r0,#0x1f]         ;1348
                  |L1.3734|
000e96  7b42              LDRB     r2,[r0,#0xd]          ;1350  ; index1
000e98  5ca2              LDRB     r2,[r4,r2]            ;1350
000e9a  2a3d              CMP      r2,#0x3d              ;1350
000e9c  d003              BEQ      |L1.3750|
000e9e  7b42              LDRB     r2,[r0,#0xd]          ;1350  ; index1
000ea0  5ca2              LDRB     r2,[r4,r2]            ;1350
000ea2  2a3a              CMP      r2,#0x3a              ;1350
000ea4  d100              BNE      |L1.3752|
                  |L1.3750|
000ea6  7205              STRB     r5,[r0,#8]            ;1350
                  |L1.3752|
000ea8  7b42              LDRB     r2,[r0,#0xd]          ;1352  ; index1
000eaa  5ca2              LDRB     r2,[r4,r2]            ;1352
000eac  2a2e              CMP      r2,#0x2e              ;1352
000eae  d100              BNE      |L1.3762|
000eb0  7245              STRB     r5,[r0,#9]            ;1352
                  |L1.3762|
000eb2  7b42              LDRB     r2,[r0,#0xd]          ;1355  ; index1
000eb4  2a02              CMP      r2,#2                 ;1355
000eb6  d95f              BLS      |L1.3960|
000eb8  78a2              LDRB     r2,[r4,#2]            ;1355  ; InOut
000eba  2a20              CMP      r2,#0x20              ;1355
000ebc  d15c              BNE      |L1.3960|
000ebe  7b42              LDRB     r2,[r0,#0xd]          ;1358  ; index1
000ec0  5ca2              LDRB     r2,[r4,r2]            ;1358
000ec2  2a20              CMP      r2,#0x20              ;1358
000ec4  d00f              BEQ      |L1.3814|
000ec6  7b42              LDRB     r2,[r0,#0xd]          ;1359  ; index1
000ec8  5ca2              LDRB     r2,[r4,r2]            ;1359
000eca  2a3b              CMP      r2,#0x3b              ;1359
000ecc  d00b              BEQ      |L1.3814|
000ece  7a02              LDRB     r2,[r0,#8]            ;1360  ; data_flag
000ed0  2a01              CMP      r2,#1                 ;1360
000ed2  d008              BEQ      |L1.3814|
000ed4  7b42              LDRB     r2,[r0,#0xd]          ;1360  ; index1
000ed6  f814c002          LDRB     r12,[r4,r2]           ;1360
000eda  4a5a              LDR      r2,|L1.4164|
000edc  f8908005          LDRB     r8,[r0,#5]            ;1360  ; index_word
000ee0  3280              ADDS     r2,r2,#0x80           ;1360
000ee2  f802c008          STRB     r12,[r2,r8]           ;1360
                  |L1.3814|
000ee6  7a02              LDRB     r2,[r0,#8]            ;1363  ; data_flag
000ee8  2a01              CMP      r2,#1                 ;1363
000eea  d118              BNE      |L1.3870|
000eec  7b42              LDRB     r2,[r0,#0xd]          ;1364  ; index1
000eee  5ca2              LDRB     r2,[r4,r2]            ;1364
000ef0  2a20              CMP      r2,#0x20              ;1364
000ef2  d014              BEQ      |L1.3870|
000ef4  7b42              LDRB     r2,[r0,#0xd]          ;1365  ; index1
000ef6  5ca2              LDRB     r2,[r4,r2]            ;1365
000ef8  2a3b              CMP      r2,#0x3b              ;1365
000efa  d010              BEQ      |L1.3870|
000efc  7b42              LDRB     r2,[r0,#0xd]          ;1366  ; index1
000efe  5ca2              LDRB     r2,[r4,r2]            ;1366
000f00  2a3d              CMP      r2,#0x3d              ;1366
000f02  d00c              BEQ      |L1.3870|
000f04  7b42              LDRB     r2,[r0,#0xd]          ;1367  ; index1
000f06  5ca2              LDRB     r2,[r4,r2]            ;1367
000f08  2a3a              CMP      r2,#0x3a              ;1367
000f0a  d008              BEQ      |L1.3870|
000f0c  7a42              LDRB     r2,[r0,#9]            ;1367  ; data_flag2
000f0e  b932              CBNZ     r2,|L1.3870|
000f10  7b42              LDRB     r2,[r0,#0xd]          ;1367  ; index1
000f12  f814c002          LDRB     r12,[r4,r2]           ;1367
000f16  f8908006          LDRB     r8,[r0,#6]            ;1367  ; index_data_word
000f1a  f80ac008          STRB     r12,[r10,r8]          ;1367
                  |L1.3870|
000f1e  7a02              LDRB     r2,[r0,#8]            ;1370  ; data_flag
000f20  2a01              CMP      r2,#1                 ;1370
000f22  d119              BNE      |L1.3928|
000f24  7b42              LDRB     r2,[r0,#0xd]          ;1371  ; index1
000f26  5ca2              LDRB     r2,[r4,r2]            ;1371
000f28  2a20              CMP      r2,#0x20              ;1371
000f2a  d015              BEQ      |L1.3928|
000f2c  7b42              LDRB     r2,[r0,#0xd]          ;1372  ; index1
000f2e  5ca2              LDRB     r2,[r4,r2]            ;1372
000f30  2a3b              CMP      r2,#0x3b              ;1372
000f32  d011              BEQ      |L1.3928|
000f34  7b42              LDRB     r2,[r0,#0xd]          ;1373  ; index1
000f36  5ca2              LDRB     r2,[r4,r2]            ;1373
000f38  2a3d              CMP      r2,#0x3d              ;1373
000f3a  d00d              BEQ      |L1.3928|
000f3c  7b42              LDRB     r2,[r0,#0xd]          ;1374  ; index1
000f3e  5ca2              LDRB     r2,[r4,r2]            ;1374
000f40  2a3a              CMP      r2,#0x3a              ;1374
000f42  d009              BEQ      |L1.3928|
000f44  7a42              LDRB     r2,[r0,#9]            ;1374  ; data_flag2
000f46  2a01              CMP      r2,#1                 ;1374
000f48  d106              BNE      |L1.3928|
000f4a  7b42              LDRB     r2,[r0,#0xd]          ;1374  ; index1
000f4c  f814c002          LDRB     r12,[r4,r2]           ;1374
000f50  f8908007          LDRB     r8,[r0,#7]            ;1374  ; index_data_word2
000f54  f80bc008          STRB     r12,[r11,r8]          ;1374
                  |L1.3928|
000f58  7a02              LDRB     r2,[r0,#8]            ;1377  ; data_flag
000f5a  2a01              CMP      r2,#1                 ;1377
000f5c  d00d              BEQ      |L1.3962|
000f5e  7b42              LDRB     r2,[r0,#0xd]          ;1378  ; index1
000f60  5ca2              LDRB     r2,[r4,r2]            ;1378
000f62  e000              B        |L1.3942|
                  |L1.3940|
000f64  e039              B        |L1.4058|
                  |L1.3942|
000f66  2a3d              CMP      r2,#0x3d              ;1378
000f68  d007              BEQ      |L1.3962|
000f6a  7b42              LDRB     r2,[r0,#0xd]          ;1379  ; index1
000f6c  5ca2              LDRB     r2,[r4,r2]            ;1379
000f6e  2a3a              CMP      r2,#0x3a              ;1379
000f70  d003              BEQ      |L1.3962|
000f72  7942              LDRB     r2,[r0,#5]            ;1379  ; index_word
000f74  1c52              ADDS     r2,r2,#1              ;1379
000f76  7142              STRB     r2,[r0,#5]            ;1379
                  |L1.3960|
000f78  e028              B        |L1.4044|
                  |L1.3962|
000f7a  7a02              LDRB     r2,[r0,#8]            ;1383  ; data_flag
000f7c  2a01              CMP      r2,#1                 ;1383
000f7e  d110              BNE      |L1.4002|
000f80  7b42              LDRB     r2,[r0,#0xd]          ;1384  ; index1
000f82  5ca2              LDRB     r2,[r4,r2]            ;1384
000f84  2a3d              CMP      r2,#0x3d              ;1384
000f86  d00c              BEQ      |L1.4002|
000f88  7b42              LDRB     r2,[r0,#0xd]          ;1385  ; index1
000f8a  5ca2              LDRB     r2,[r4,r2]            ;1385
000f8c  2a3a              CMP      r2,#0x3a              ;1385
000f8e  d008              BEQ      |L1.4002|
000f90  7b42              LDRB     r2,[r0,#0xd]          ;1386  ; index1
000f92  5ca2              LDRB     r2,[r4,r2]            ;1386
000f94  2a2e              CMP      r2,#0x2e              ;1386
000f96  d004              BEQ      |L1.4002|
000f98  7a42              LDRB     r2,[r0,#9]            ;1387  ; data_flag2
000f9a  b912              CBNZ     r2,|L1.4002|
000f9c  7982              LDRB     r2,[r0,#6]            ;1387  ; index_data_word
000f9e  1c52              ADDS     r2,r2,#1              ;1387
000fa0  7182              STRB     r2,[r0,#6]            ;1387
                  |L1.4002|
000fa2  7a02              LDRB     r2,[r0,#8]            ;1389  ; data_flag
000fa4  2a01              CMP      r2,#1                 ;1389
000fa6  d111              BNE      |L1.4044|
000fa8  7b42              LDRB     r2,[r0,#0xd]          ;1390  ; index1
000faa  5ca2              LDRB     r2,[r4,r2]            ;1390
000fac  2a3d              CMP      r2,#0x3d              ;1390
000fae  d00d              BEQ      |L1.4044|
000fb0  7b42              LDRB     r2,[r0,#0xd]          ;1391  ; index1
000fb2  5ca2              LDRB     r2,[r4,r2]            ;1391
000fb4  2a3a              CMP      r2,#0x3a              ;1391
000fb6  d009              BEQ      |L1.4044|
000fb8  7b42              LDRB     r2,[r0,#0xd]          ;1392  ; index1
000fba  5ca2              LDRB     r2,[r4,r2]            ;1392
000fbc  2a2e              CMP      r2,#0x2e              ;1392
000fbe  d005              BEQ      |L1.4044|
000fc0  7a42              LDRB     r2,[r0,#9]            ;1393  ; data_flag2
000fc2  2a01              CMP      r2,#1                 ;1393
000fc4  d102              BNE      |L1.4044|
000fc6  79c2              LDRB     r2,[r0,#7]            ;1393  ; index_data_word2
000fc8  1c52              ADDS     r2,r2,#1              ;1393
000fca  71c2              STRB     r2,[r0,#7]            ;1393
                  |L1.4044|
000fcc  7b42              LDRB     r2,[r0,#0xd]          ;1398  ; index1
000fce  1c52              ADDS     r2,r2,#1              ;1398
000fd0  7342              STRB     r2,[r0,#0xd]          ;1398
000fd2  1c5b              ADDS     r3,r3,#1              ;1398
000fd4  1e49              SUBS     r1,r1,#1              ;1399
000fd6  b2db              UXTB     r3,r3                 ;1399
000fd8  b2c9              UXTB     r1,r1                 ;1400
                  |L1.4058|
000fda  2900              CMP      r1,#0                 ;1338
000fdc  f47faf45          BNE      |L1.3690|
000fe0  f899000d          LDRB     r0,[r9,#0xd]          ;1404  ; index1
000fe4  f899001f          LDRB     r0,[r9,#0x1f]         ;1408  ; packet_ok
000fe8  2801              CMP      r0,#1                 ;1408
                  |L1.4074|
000fea  d17d              BNE      |L1.4328|
000fec  7820              LDRB     r0,[r4,#0]            ;1412  ; InOut
000fee  287e              CMP      r0,#0x7e              ;1412
000ff0  d105              BNE      |L1.4094|
000ff2  f899001e          LDRB     r0,[r9,#0x1e]         ;1412  ; crc_ok
000ff6  f0400001          ORR      r0,r0,#1              ;1412
000ffa  f889001e          STRB     r0,[r9,#0x1e]         ;1412
                  |L1.4094|
000ffe  7860              LDRB     r0,[r4,#1]            ;1413  ; InOut
001000  f8991004          LDRB     r1,[r9,#4]            ;1413  ; Adress
001004  4288              CMP      r0,r1                 ;1413
001006  d105              BNE      |L1.4116|
001008  f899001e          LDRB     r0,[r9,#0x1e]         ;1413  ; crc_ok
00100c  f0400002          ORR      r0,r0,#2              ;1413
001010  f889001e          STRB     r0,[r9,#0x1e]         ;1413
                  |L1.4116|
001014  f899001e          LDRB     r0,[r9,#0x1e]         ;1415  ; crc_ok
001018  2803              CMP      r0,#3                 ;1415
00101a  d1e6              BNE      |L1.4074|
00101c  4809              LDR      r0,|L1.4164|
00101e  a121              ADR      r1,|L1.4260|
001020  3080              ADDS     r0,r0,#0x80           ;1419
001022  f7fffffe          BL       strcmp
001026  b900              CBNZ     r0,|L1.4138|
001028  e040              B        |L1.4268|
                  |L1.4138|
00102a  e049              B        |L1.4288|
                  |L1.4140|
00102c  2e2ef3f1          DCB      "..",243,241,242,224,237,238,226,234,224," ",234,238,228
001030  f2e0edee
001034  e2eae020
001038  eaeee4  
00103b  e0204b64          DCB      224," Kdiv2:",0
00103f  6976323a
001043  00      
                  |L1.4164|
                          DCD      ||.bss||+0x2c8
                  |L1.4168|
001048  2e2e4b64          DCB      "..Kdiv2 - ",205,197,210," ",210,192,202,206,195,206," ",202
00104c  69763220
001050  2d20cdc5
001054  d220d2c0
001058  cacec3ce
00105c  20ca    
00105e  cec4c021          DCB      206,196,192,"!!!...\r",0
001062  21212e2e
001066  2e0d00  
001069  00                DCB      0
00106a  00                DCB      0
00106b  00                DCB      0
                  |L1.4204|
00106c  2e2ef3f1          DCB      "..",243,241,242,224,237,238,226,234,224," ",234,238,228
001070  f2e0edee
001074  e2eae020
001078  eaeee4  
00107b  e0204b64          DCB      224," Kdiv3:",0
00107f  6976333a
001083  00      
                  |L1.4228|
                          DCD      ||area_number.15||
                  |L1.4232|
001088  7e3120f1          DCB      "~1 ",241,238,241,242,238,255,237,232,229,"_",202,"611:",0
00108c  eef1f2ee
001090  ffede8e5
001094  5fca3631
001098  313a00  
00109b  00                DCB      0
                  |L1.4252|
00109c  2e00              DCB      ".",0
00109e  00                DCB      0
00109f  00                DCB      0
                  |L1.4256|
0010a0  3b00              DCB      ";",0
0010a2  00                DCB      0
0010a3  00                DCB      0
                  |L1.4260|
0010a4  68656c70          DCB      "help",0
0010a8  00      
0010a9  00                DCB      0
0010aa  00                DCB      0
0010ab  00                DCB      0
                  |L1.4268|
0010ac  a0f8              ADR      r0,|L1.5264|
0010ae  f7fffffe          BL       Transf
0010b2  2074              MOVS     r0,#0x74              ;1423
0010b4  f7fffffe          BL       Menu1
0010b8  f889600b          STRB     r6,[r9,#0xb]          ;1424
0010bc  f8c9502c          STR      r5,[r9,#0x2c]         ;1425  ; sch_pachek_test
                  |L1.4288|
0010c0  a1f7              ADR      r1,|L1.5280|
0010c2  48fb              LDR      r0,|L1.5296|
0010c4  f7fffffe          BL       strcmp
0010c8  b938              CBNZ     r0,|L1.4314|
0010ca  a0fa              ADR      r0,|L1.5300|
0010cc  f7fffffe          BL       Transf
0010d0  f1090050          ADD      r0,r9,#0x50           ;1429
0010d4  c807              LDM      r0,{r0-r2}            ;1429
0010d6  f7fffffe          BL       reg_FAPCH_watch
                  |L1.4314|
0010da  a1fc              ADR      r1,|L1.5324|
0010dc  48f4              LDR      r0,|L1.5296|
0010de  f7fffffe          BL       strcmp
0010e2  b948              CBNZ     r0,|L1.4344|
0010e4  a0fd              ADR      r0,|L1.5340|
0010e6  e000              B        |L1.4330|
                  |L1.4328|
0010e8  e3c8              B        |L1.6268|
                  |L1.4330|
0010ea  f7fffffe          BL       Transf
0010ee  f109005c          ADD      r0,r9,#0x5c           ;1430
0010f2  c807              LDM      r0,{r0-r2}            ;1430
0010f4  f7fffffe          BL       reg_FAPCH_watch
                  |L1.4344|
0010f8  a1fe              ADR      r1,|L1.5364|
0010fa  48ed              LDR      r0,|L1.5296|
0010fc  f7fffffe          BL       strcmp
001100  b9b8              CBNZ     r0,|L1.4402|
001102  48eb              LDR      r0,|L1.5296|
001104  3040              ADDS     r0,r0,#0x40           ;1433
001106  f7fffffe          BL       atoi
00110a  f8c90040          STR      r0,[r9,#0x40]         ;1434  ; dFo1
00110e  a0fa              ADR      r0,|L1.5368|
001110  f7fffffe          BL       Transf
001114  48e6              LDR      r0,|L1.5296|
001116  a1fb              ADR      r1,|L1.5380|
001118  3880              SUBS     r0,r0,#0x80           ;1435
00111a  f8d92040          LDR      r2,[r9,#0x40]         ;1435  ; dFo1
00111e  f7fffffe          BL       __2sprintf
001122  48e3              LDR      r0,|L1.5296|
001124  3880              SUBS     r0,r0,#0x80           ;1436
001126  f7fffffe          BL       Transf
00112a  f2af5088          ADR      r0,|L1.2980|
00112e  f7fffffe          BL       Transf
                  |L1.4402|
001132  a1f5              ADR      r1,|L1.5384|
001134  48de              LDR      r0,|L1.5296|
001136  f7fffffe          BL       strcmp
00113a  bb38              CBNZ     r0,|L1.4492|
00113c  48dc              LDR      r0,|L1.5296|
00113e  3040              ADDS     r0,r0,#0x40           ;1443
001140  f7fffffe          BL       atoi
001144  f8c90040          STR      r0,[r9,#0x40]         ;1444  ; dFo1
001148  a0f5              ADR      r0,|L1.5408|
00114a  f7fffffe          BL       Transf
00114e  48d8              LDR      r0,|L1.5296|
001150  a1ec              ADR      r1,|L1.5380|
001152  3880              SUBS     r0,r0,#0x80           ;1445
001154  f8d92040          LDR      r2,[r9,#0x40]         ;1445  ; dFo1
001158  f7fffffe          BL       __2sprintf
00115c  48d4              LDR      r0,|L1.5296|
00115e  3880              SUBS     r0,r0,#0x80           ;1446
001160  f7fffffe          BL       Transf
001164  f6af00dc          ADR      r0,|L1.2188|
001168  f7fffffe          BL       Transf
00116c  48d0              LDR      r0,|L1.5296|
00116e  3880              SUBS     r0,r0,#0x80           ;1448
001170  f7fffffe          BL       sendT
001174  f6af00ec          ADR      r0,|L1.2188|
001178  f7fffffe          BL       Transf
00117c  48cc              LDR      r0,|L1.5296|
00117e  3880              SUBS     r0,r0,#0x80           ;1450
001180  f7fffffe          BL       sendT2
001184  f6af00fc          ADR      r0,|L1.2188|
001188  f7fffffe          BL       Transf
                  |L1.4492|
00118c  a1ec              ADR      r1,|L1.5440|
00118e  48c8              LDR      r0,|L1.5296|
001190  f7fffffe          BL       strcmp
001194  bb08              CBNZ     r0,|L1.4570|
001196  48c6              LDR      r0,|L1.5296|
001198  3040              ADDS     r0,r0,#0x40           ;1456
00119a  f7fffffe          BL       atoi
00119e  f8c90040          STR      r0,[r9,#0x40]         ;1457  ; dFo1
0011a2  a0ea              ADR      r0,|L1.5452|
0011a4  f7fffffe          BL       Transf
0011a8  48c1              LDR      r0,|L1.5296|
0011aa  a1d6              ADR      r1,|L1.5380|
0011ac  3880              SUBS     r0,r0,#0x80           ;1458
0011ae  f8d92040          LDR      r2,[r9,#0x40]         ;1458  ; dFo1
0011b2  f7fffffe          BL       __2sprintf
0011b6  48be              LDR      r0,|L1.5296|
0011b8  3880              SUBS     r0,r0,#0x80           ;1459
0011ba  f7fffffe          BL       Transf
0011be  f6af1034          ADR      r0,|L1.2188|
0011c2  f7fffffe          BL       Transf
0011c6  f8b90040          LDRH     r0,[r9,#0x40]         ;1462  ; dFo1
0011ca  b280              UXTH     r0,r0                 ;1462
0011cc  f7fffffe          BL       SPI1_send
0011d0  f8b90040          LDRH     r0,[r9,#0x40]         ;1463  ; dFo1
0011d4  b280              UXTH     r0,r0                 ;1463
0011d6  f7fffffe          BL       SPI2_send
                  |L1.4570|
0011da  a1e1              ADR      r1,|L1.5472|
0011dc  48b4              LDR      r0,|L1.5296|
0011de  f7fffffe          BL       strcmp
0011e2  bb10              CBNZ     r0,|L1.4650|
0011e4  48b2              LDR      r0,|L1.5296|
0011e6  3040              ADDS     r0,r0,#0x40           ;1468
0011e8  f7fffffe          BL       atoi
0011ec  f8c90040          STR      r0,[r9,#0x40]         ;1469  ; dFo1
0011f0  a0df              ADR      r0,|L1.5488|
0011f2  f7fffffe          BL       Transf
0011f6  f2af6108          ADR      r1,|L1.3056|
0011fa  48ad              LDR      r0,|L1.5296|
0011fc  f8d92040          LDR      r2,[r9,#0x40]         ;1470  ; dFo1
001200  3880              SUBS     r0,r0,#0x80           ;1470
001202  f7fffffe          BL       __2sprintf
001206  48aa              LDR      r0,|L1.5296|
001208  3880              SUBS     r0,r0,#0x80           ;1471
00120a  f7fffffe          BL       Transf
00120e  f6af1084          ADR      r0,|L1.2188|
001212  f7fffffe          BL       Transf
001216  49dc              LDR      r1,|L1.5512|
001218  f8d90040          LDR      r0,[r9,#0x40]         ;1474  ; dFo1
00121c  f7fffffe          BL       Kdiv1
001220  f1090050          ADD      r0,r9,#0x50           ;1474
001224  c807              LDM      r0,{r0-r2}            ;1474
001226  f7fffffe          BL       Write_FOCH1
                  |L1.4650|
00122a  a1d8              ADR      r1,|L1.5516|
00122c  48a0              LDR      r0,|L1.5296|
00122e  f7fffffe          BL       strcmp
001232  bb18              CBNZ     r0,|L1.4732|
001234  489e              LDR      r0,|L1.5296|
001236  3040              ADDS     r0,r0,#0x40           ;1479
001238  f7fffffe          BL       atoi
00123c  f8c90040          STR      r0,[r9,#0x40]         ;1480  ; dFo1
001240  a0d6              ADR      r0,|L1.5532|
001242  f7fffffe          BL       Transf
001246  f2af6158          ADR      r1,|L1.3056|
00124a  4899              LDR      r0,|L1.5296|
00124c  f8d92040          LDR      r2,[r9,#0x40]         ;1481  ; dFo1
001250  3880              SUBS     r0,r0,#0x80           ;1481
001252  f7fffffe          BL       __2sprintf
001256  4896              LDR      r0,|L1.5296|
001258  3880              SUBS     r0,r0,#0x80           ;1482
00125a  f7fffffe          BL       Transf
00125e  f6af10d4          ADR      r0,|L1.2188|
001262  f7fffffe          BL       Transf
001266  49c8              LDR      r1,|L1.5512|
001268  f8d90040          LDR      r0,[r9,#0x40]         ;1485  ; dFo1
00126c  310c              ADDS     r1,r1,#0xc            ;1485
00126e  f7fffffe          BL       Kdiv1
001272  f109005c          ADD      r0,r9,#0x5c           ;1485
001276  c807              LDM      r0,{r0-r2}            ;1485
001278  f7fffffe          BL       Write_FOCH2
                  |L1.4732|
00127c  a1cd              ADR      r1,|L1.5556|
00127e  488c              LDR      r0,|L1.5296|
001280  f7fffffe          BL       strcmp
001284  bb10              CBNZ     r0,|L1.4812|
001286  488a              LDR      r0,|L1.5296|
001288  3040              ADDS     r0,r0,#0x40           ;1490
00128a  f7fffffe          BL       atoi
00128e  f8c90040          STR      r0,[r9,#0x40]         ;1491  ; dFo1
001292  a0cc              ADR      r0,|L1.5572|
001294  f7fffffe          BL       Transf
001298  f2af61ac          ADR      r1,|L1.3056|
00129c  4884              LDR      r0,|L1.5296|
00129e  f8d92040          LDR      r2,[r9,#0x40]         ;1492  ; dFo1
0012a2  3880              SUBS     r0,r0,#0x80           ;1492
0012a4  f7fffffe          BL       __2sprintf
0012a8  4881              LDR      r0,|L1.5296|
0012aa  3880              SUBS     r0,r0,#0x80           ;1493
0012ac  f7fffffe          BL       Transf
0012b0  f6af2028          ADR      r0,|L1.2188|
0012b4  f7fffffe          BL       Transf
0012b8  49b3              LDR      r1,|L1.5512|
0012ba  f8d90040          LDR      r0,[r9,#0x40]         ;1496  ; dFo1
0012be  f7fffffe          BL       Kdiv2
0012c2  f1090050          ADD      r0,r9,#0x50           ;1496
0012c6  c807              LDM      r0,{r0-r2}            ;1496
0012c8  f7fffffe          BL       Write_FOCH1
                  |L1.4812|
0012cc  a1c3              ADR      r1,|L1.5596|
0012ce  4878              LDR      r0,|L1.5296|
0012d0  f7fffffe          BL       strcmp
0012d4  bb18              CBNZ     r0,|L1.4894|
0012d6  4876              LDR      r0,|L1.5296|
0012d8  3040              ADDS     r0,r0,#0x40           ;1501
0012da  f7fffffe          BL       atoi
0012de  f8c90040          STR      r0,[r9,#0x40]         ;1502  ; dFo1
0012e2  a0c2              ADR      r0,|L1.5612|
0012e4  f7fffffe          BL       Transf
0012e8  f2af61fc          ADR      r1,|L1.3056|
0012ec  4870              LDR      r0,|L1.5296|
0012ee  f8d92040          LDR      r2,[r9,#0x40]         ;1503  ; dFo1
0012f2  3880              SUBS     r0,r0,#0x80           ;1503
0012f4  f7fffffe          BL       __2sprintf
0012f8  486d              LDR      r0,|L1.5296|
0012fa  3880              SUBS     r0,r0,#0x80           ;1504
0012fc  f7fffffe          BL       Transf
001300  f6af2078          ADR      r0,|L1.2188|
001304  f7fffffe          BL       Transf
001308  499f              LDR      r1,|L1.5512|
00130a  f8d90040          LDR      r0,[r9,#0x40]         ;1507  ; dFo1
00130e  310c              ADDS     r1,r1,#0xc            ;1507
001310  f7fffffe          BL       Kdiv2
001314  f109005c          ADD      r0,r9,#0x5c           ;1507
001318  c807              LDM      r0,{r0-r2}            ;1507
00131a  f7fffffe          BL       Write_FOCH2
                  |L1.4894|
00131e  a1b9              ADR      r1,|L1.5636|
001320  4863              LDR      r0,|L1.5296|
001322  f7fffffe          BL       strcmp
001326  bb10              CBNZ     r0,|L1.4974|
001328  4861              LDR      r0,|L1.5296|
00132a  3040              ADDS     r0,r0,#0x40           ;1513
00132c  f7fffffe          BL       atoi
001330  f8c90040          STR      r0,[r9,#0x40]         ;1514  ; dFo1
001334  a0b7              ADR      r0,|L1.5652|
001336  f7fffffe          BL       Transf
00133a  f2af714c          ADR      r1,|L1.3056|
00133e  485c              LDR      r0,|L1.5296|
001340  f8d92040          LDR      r2,[r9,#0x40]         ;1515  ; dFo1
001344  3880              SUBS     r0,r0,#0x80           ;1515
001346  f7fffffe          BL       __2sprintf
00134a  4859              LDR      r0,|L1.5296|
00134c  3880              SUBS     r0,r0,#0x80           ;1516
00134e  f7fffffe          BL       Transf
001352  f6af20c8          ADR      r0,|L1.2188|
001356  f7fffffe          BL       Transf
00135a  498b              LDR      r1,|L1.5512|
00135c  f8d90040          LDR      r0,[r9,#0x40]         ;1519  ; dFo1
001360  f7fffffe          BL       Kdiv3
001364  f1090050          ADD      r0,r9,#0x50           ;1519
001368  c807              LDM      r0,{r0-r2}            ;1519
00136a  f7fffffe          BL       Write_FOCH1
                  |L1.4974|
00136e  a1af              ADR      r1,|L1.5676|
001370  484f              LDR      r0,|L1.5296|
001372  f7fffffe          BL       strcmp
001376  bb18              CBNZ     r0,|L1.5056|
001378  484d              LDR      r0,|L1.5296|
00137a  3040              ADDS     r0,r0,#0x40           ;1524
00137c  f7fffffe          BL       atoi
001380  f8c90040          STR      r0,[r9,#0x40]         ;1525  ; dFo1
001384  a0ad              ADR      r0,|L1.5692|
001386  f7fffffe          BL       Transf
00138a  f2af719c          ADR      r1,|L1.3056|
00138e  4848              LDR      r0,|L1.5296|
001390  f8d92040          LDR      r2,[r9,#0x40]         ;1526  ; dFo1
001394  3880              SUBS     r0,r0,#0x80           ;1526
001396  f7fffffe          BL       __2sprintf
00139a  4845              LDR      r0,|L1.5296|
00139c  3880              SUBS     r0,r0,#0x80           ;1527
00139e  f7fffffe          BL       Transf
0013a2  f6af3018          ADR      r0,|L1.2188|
0013a6  f7fffffe          BL       Transf
0013aa  4977              LDR      r1,|L1.5512|
0013ac  f8d90040          LDR      r0,[r9,#0x40]         ;1530  ; dFo1
0013b0  310c              ADDS     r1,r1,#0xc            ;1530
0013b2  f7fffffe          BL       Kdiv3
0013b6  f109005c          ADD      r0,r9,#0x5c           ;1530
0013ba  c807              LDM      r0,{r0-r2}            ;1530
0013bc  f7fffffe          BL       Write_FOCH2
                  |L1.5056|
0013c0  a1a4              ADR      r1,|L1.5716|
0013c2  483b              LDR      r0,|L1.5296|
0013c4  f7fffffe          BL       strcmp
0013c8  bb88              CBNZ     r0,|L1.5166|
0013ca  a0a5              ADR      r0,|L1.5728|
0013cc  f7fffffe          BL       Transf
0013d0  f8990016          LDRB     r0,[r9,#0x16]         ;1538  ; flag_status_ZAHVAT
0013d4  b910              CBNZ     r0,|L1.5084|
0013d6  a0a7              ADR      r0,|L1.5748|
0013d8  f7fffffe          BL       Transf
                  |L1.5084|
0013dc  f8990016          LDRB     r0,[r9,#0x16]         ;1539  ; flag_status_ZAHVAT
0013e0  2801              CMP      r0,#1                 ;1539
0013e2  d102              BNE      |L1.5098|
0013e4  a0a7              ADR      r0,|L1.5764|
0013e6  f7fffffe          BL       Transf
                  |L1.5098|
0013ea  f8990016          LDRB     r0,[r9,#0x16]         ;1540  ; flag_status_ZAHVAT
0013ee  2802              CMP      r0,#2                 ;1540
0013f0  d102              BNE      |L1.5112|
0013f2  a0a9              ADR      r0,|L1.5784|
0013f4  f7fffffe          BL       Transf
                  |L1.5112|
0013f8  f8990016          LDRB     r0,[r9,#0x16]         ;1541  ; flag_status_ZAHVAT
0013fc  2803              CMP      r0,#3                 ;1541
0013fe  d102              BNE      |L1.5126|
001400  a0aa              ADR      r0,|L1.5804|
001402  f7fffffe          BL       Transf
                  |L1.5126|
001406  a0ad              ADR      r0,|L1.5820|
001408  f7fffffe          BL       Transf
00140c  f8992016          LDRB     r2,[r9,#0x16]         ;1544  ; flag_status_ZAHVAT
001410  f6af0124          ADR      r1,|L1.3056|
001414  4826              LDR      r0,|L1.5296|
001416  3880              SUBS     r0,r0,#0x80           ;1544
001418  f7fffffe          BL       __2sprintf
00141c  4824              LDR      r0,|L1.5296|
00141e  3880              SUBS     r0,r0,#0x80           ;1545
001420  f7fffffe          BL       Transf
001424  a096              ADR      r0,|L1.5760|
001426  f7fffffe          BL       Transf
00142a  f7fffffe          BL       Otvet_3
                  |L1.5166|
00142e  a1a7              ADR      r1,|L1.5836|
001430  481f              LDR      r0,|L1.5296|
001432  f7fffffe          BL       strcmp
001436  b938              CBNZ     r0,|L1.5192|
001438  a0a7              ADR      r0,|L1.5848|
00143a  f7fffffe          BL       Transf
00143e  f1090050          ADD      r0,r9,#0x50           ;1553
001442  c807              LDM      r0,{r0-r2}            ;1553
001444  f7fffffe          BL       Write_FOCH1
                  |L1.5192|
001448  a1a8              ADR      r1,|L1.5868|
00144a  4819              LDR      r0,|L1.5296|
00144c  f7fffffe          BL       strcmp
001450  b938              CBNZ     r0,|L1.5218|
001452  a0a9              ADR      r0,|L1.5880|
001454  f7fffffe          BL       Transf
001458  f109005c          ADD      r0,r9,#0x5c           ;1554
00145c  c807              LDM      r0,{r0-r2}            ;1554
00145e  f7fffffe          BL       Write_FOCH2
                  |L1.5218|
001462  a1aa              ADR      r1,|L1.5900|
001464  4812              LDR      r0,|L1.5296|
001466  f7fffffe          BL       strcmp
00146a  b920              CBNZ     r0,|L1.5238|
00146c  a0aa              ADR      r0,|L1.5912|
00146e  f7fffffe          BL       Transf
001472  f8896017          STRB     r6,[r9,#0x17]         ;1555
                  |L1.5238|
001476  a1ad              ADR      r1,|L1.5932|
001478  480d              LDR      r0,|L1.5296|
00147a  f7fffffe          BL       strcmp
00147e  b910              CBNZ     r0,|L1.5254|
001480  a0b2              ADR      r0,|L1.5964|
001482  f7fffffe          BL       Transf
                  |L1.5254|
001486  a1bb              ADR      r1,|L1.6004|
001488  4809              LDR      r0,|L1.5296|
00148a  f7fffffe          BL       strcmp
00148e  e17b              B        |L1.6024|
                  |L1.5264|
001490  eff0e8ed          DCB      239,240,232,237,255,235," help\r",0
001494  ffeb2068
001498  656c700d
00149c  00      
00149d  00                DCB      0
00149e  00                DCB      0
00149f  00                DCB      0
                  |L1.5280|
0014a0  77617463          DCB      "watch_reg_",212,192,207,215,"1",0
0014a4  685f7265
0014a8  675fd4c0
0014ac  cfd73100
                  |L1.5296|
                          DCD      ||.bss||+0x348
                  |L1.5300|
0014b4  eff0e8ed          DCB      239,240,232,237,255,235," watch_reg_",212,192,207,215,"1"
0014b8  ffeb2077
0014bc  61746368
0014c0  5f726567
0014c4  5fd4c0cf
0014c8  d731    
0014ca  0d00              DCB      "\r",0
                  |L1.5324|
0014cc  77617463          DCB      "watch_reg_",212,192,207,215,"2",0
0014d0  685f7265
0014d4  675fd4c0
0014d8  cfd73200
                  |L1.5340|
0014dc  eff0e8ed          DCB      239,240,232,237,255,235," watch_reg_",212,192,207,215,"2"
0014e0  ffeb2077
0014e4  61746368
0014e8  5f726567
0014ec  5fd4c0cf
0014f0  d732    
0014f2  0d00              DCB      "\r",0
                  |L1.5364|
0014f4  41444300          DCB      "ADC",0
                  |L1.5368|
0014f8  eff0e8ed          DCB      239,240,232,237,255,235," ADC:",0
0014fc  ffeb2041
001500  44433a00
                  |L1.5380|
001504  257800            DCB      "%x",0
001507  00                DCB      0
                  |L1.5384|
001508  d3f1f2e0          DCB      211,241,242,224,237,238,226,232,242,252,"_",192,236,239,235
00150c  edeee2e8
001510  f2fc5fc0
001514  ecefeb  
001517  e8f2f3e4          DCB      232,242,243,228,243,0
00151b  f300    
00151d  00                DCB      0
00151e  00                DCB      0
00151f  00                DCB      0
                  |L1.5408|
001520  eff0e8ed          DCB      239,240,232,237,255,235," ",211,241,242,224,237,238,226,232
001524  ffeb20d3
001528  f1f2e0ed
00152c  eee2e8  
00152f  f2fc5fc0          DCB      242,252,"_",192,236,239,235,232,242,243,228,243,":",0
001533  ecefebe8
001537  f2f3e4f3
00153b  3a00    
00153d  00                DCB      0
00153e  00                DCB      0
00153f  00                DCB      0
                  |L1.5440|
001540  5350495f          DCB      "SPI_send()",0
001544  73656e64
001548  282900  
00154b  00                DCB      0
                  |L1.5452|
00154c  eff0e8ed          DCB      239,240,232,237,255,235," SPI_send():",0
001550  ffeb2053
001554  50495f73
001558  656e6428
00155c  293a00  
00155f  00                DCB      0
                  |L1.5472|
001560  d4c0cfd7          DCB      212,192,207,215,"1_Kdiv1()",0
001564  315f4b64
001568  69763128
00156c  2900    
00156e  00                DCB      0
00156f  00                DCB      0
                  |L1.5488|
001570  eff0e8ed          DCB      239,240,232,237,255,235," ",212,192,207,215,"1_Kdiv1():",0
001574  ffeb20d4
001578  c0cfd731
00157c  5f4b6469
001580  76312829
001584  3a00    
001586  00                DCB      0
001587  00                DCB      0
                  |L1.5512|
                          DCD      ||area_number.15||+0x50
                  |L1.5516|
00158c  d4c0cfd7          DCB      212,192,207,215,"2_Kdiv1()",0
001590  325f4b64
001594  69763128
001598  2900    
00159a  00                DCB      0
00159b  00                DCB      0
                  |L1.5532|
00159c  eff0e8ed          DCB      239,240,232,237,255,235," ",212,192,207,215,"2_Kdiv1():",0
0015a0  ffeb20d4
0015a4  c0cfd732
0015a8  5f4b6469
0015ac  76312829
0015b0  3a00    
0015b2  00                DCB      0
0015b3  00                DCB      0
                  |L1.5556|
0015b4  d4c0cfd7          DCB      212,192,207,215,"1_Kdiv2()",0
0015b8  315f4b64
0015bc  69763228
0015c0  2900    
0015c2  00                DCB      0
0015c3  00                DCB      0
                  |L1.5572|
0015c4  eff0e8ed          DCB      239,240,232,237,255,235," ",212,192,207,215,"1_Kdiv2():",0
0015c8  ffeb20d4
0015cc  c0cfd731
0015d0  5f4b6469
0015d4  76322829
0015d8  3a00    
0015da  00                DCB      0
0015db  00                DCB      0
                  |L1.5596|
0015dc  d4c0cfd7          DCB      212,192,207,215,"2_Kdiv2()",0
0015e0  325f4b64
0015e4  69763228
0015e8  2900    
0015ea  00                DCB      0
0015eb  00                DCB      0
                  |L1.5612|
0015ec  eff0e8ed          DCB      239,240,232,237,255,235," ",212,192,207,215,"2_Kdiv2():",0
0015f0  ffeb20d4
0015f4  c0cfd732
0015f8  5f4b6469
0015fc  76322829
001600  3a00    
001602  00                DCB      0
001603  00                DCB      0
                  |L1.5636|
001604  d4c0cfd7          DCB      212,192,207,215,"1_Kdiv3()",0
001608  315f4b64
00160c  69763328
001610  2900    
001612  00                DCB      0
001613  00                DCB      0
                  |L1.5652|
001614  eff0e8ed          DCB      239,240,232,237,255,235," ",212,192,207,215,"1_Kdiv3():",0
001618  ffeb20d4
00161c  c0cfd731
001620  5f4b6469
001624  76332829
001628  3a00    
00162a  00                DCB      0
00162b  00                DCB      0
                  |L1.5676|
00162c  d4c0cfd7          DCB      212,192,207,215,"2_Kdiv3()",0
001630  325f4b64
001634  69763328
001638  2900    
00163a  00                DCB      0
00163b  00                DCB      0
                  |L1.5692|
00163c  eff0e8ed          DCB      239,240,232,237,255,235," ",212,192,207,215,"2_Kdiv3():",0
001640  ffeb20d4
001644  c0cfd732
001648  5f4b6469
00164c  76332829
001650  3a00    
001652  00                DCB      0
001653  00                DCB      0
                  |L1.5716|
001654  4c445f63          DCB      "LD_control",0
001658  6f6e7472
00165c  6f6c00  
00165f  00                DCB      0
                  |L1.5728|
001660  eff0e8ed          DCB      239,240,232,237,255,235," LD_control\r",0
001664  ffeb204c
001668  445f636f
00166c  6e74726f
001670  6c0d00  
001673  00                DCB      0
                  |L1.5748|
001674  c7e0f5e2          DCB      199,224,245,226,224,242,238,226," ",237,229,242
001678  e0f2eee2
00167c  20ede5f2
                  |L1.5760|
001680  0d00              DCB      "\r",0
001682  00                DCB      0
001683  00                DCB      0
                  |L1.5764|
001684  c7e0f5e2          DCB      199,224,245,226,224,242," ",195,229,242,229,240,238,228,232
001688  e0f220c3
00168c  e5f2e5f0
001690  eee4e8  
001693  ede00d00          DCB      237,224,"\r",0
001697  00                DCB      0
                  |L1.5784|
001698  c7e0f5e2          DCB      199,224,245,226,224,242," ",209,232,237,242,229,231,224,242
00169c  e0f220d1
0016a0  e8edf2e5
0016a4  e7e0f2  
0016a7  eef00d00          DCB      238,240,"\r",0
0016ab  00                DCB      0
                  |L1.5804|
0016ac  cee1e020          DCB      206,225,224," ",226," ",231,224,245,226,224,242,229,"\r",0
0016b0  e220e7e0
0016b4  f5e2e0f2
0016b8  e50d00  
0016bb  00                DCB      0
                  |L1.5820|
0016bc  4c445f63          DCB      "LD_control():",0
0016c0  6f6e7472
0016c4  6f6c2829
0016c8  3a00    
0016ca  00                DCB      0
0016cb  00                DCB      0
                  |L1.5836|
0016cc  d4c0cfd7          DCB      212,192,207,215,"1_init",0
0016d0  315f696e
0016d4  697400  
0016d7  00                DCB      0
                  |L1.5848|
0016d8  eff0e8ed          DCB      239,240,232,237,255,235," ",212,192,207,215,"1_init\r",0
0016dc  ffeb20d4
0016e0  c0cfd731
0016e4  5f696e69
0016e8  740d00  
0016eb  00                DCB      0
                  |L1.5868|
0016ec  d4c0cfd7          DCB      212,192,207,215,"2_init",0
0016f0  325f696e
0016f4  697400  
0016f7  00                DCB      0
                  |L1.5880|
0016f8  eff0e8ed          DCB      239,240,232,237,255,235," ",212,192,207,215,"2_init\r",0
0016fc  ffeb20d4
001700  c0cfd732
001704  5f696e69
001708  740d00  
00170b  00                DCB      0
                  |L1.5900|
00170c  d4ced75f          DCB      212,206,215,"_init",0
001710  696e6974
001714  00      
001715  00                DCB      0
001716  00                DCB      0
001717  00                DCB      0
                  |L1.5912|
001718  eff0e8ed          DCB      239,240,232,237,255,235," ",212,206,215,"_init\r",0
00171c  ffeb20d4
001720  ced75f69
001724  6e69740d
001728  00      
001729  00                DCB      0
00172a  00                DCB      0
00172b  00                DCB      0
                  |L1.5932|
00172c  c8ede4e8          DCB      200,237,228,232,234,224,246,232,255,"_",241,238,241,242,238
001730  eae0f6e8
001734  ff5ff1ee
001738  f1f2ee  
00173b  ffede8ff          DCB      255,237,232,255,"_",241,232,237,242,229,231,224,242,238,240
00173f  5ff1e8ed
001743  f2e5e7e0
001747  f2eef0  
00174a  e000              DCB      224,0
                  |L1.5964|
00174c  eff0e8ed          DCB      239,240,232,237,255,235," ",200,237,228,232,234,224,246,232
001750  ffeb20c8
001754  ede4e8ea
001758  e0f6e8  
00175b  ff5ff1ee          DCB      255,"_",241,238,241,242,238,255,237,232,255,"_",241,232,237
00175f  f1f2eeff
001763  ede8ff5f
001767  f1e8ed  
00176a  f2e5e7e0          DCB      242,229,231,224,242,238,240,224,"\r",0
00176e  f2eef0e0
001772  0d00    
                  |L1.6004|
001774  c2eaebfe          DCB      194,234,235,254,247,232,242,252,"_",241,232,237,242,229,231
001778  f7e8f2fc
00177c  5ff1e8ed
001780  f2e5e7  
001783  e0f2eef0          DCB      224,242,238,240,0
001787  00      
                  |L1.6024|
001788  b910              CBNZ     r0,|L1.6032|
00178a  a0f3              ADR      r0,|L1.7000|
00178c  f7fffffe          BL       Transf
                  |L1.6032|
001790  a1f8              ADR      r1,|L1.7028|
001792  48fe              LDR      r0,|L1.7052|
001794  f7fffffe          BL       strcmp
001798  b9d0              CBNZ     r0,|L1.6096|
00179a  48fc              LDR      r0,|L1.7052|
00179c  3040              ADDS     r0,r0,#0x40           ;1564
00179e  f7fffffe          BL       atoi
0017a2  f8890022          STRB     r0,[r9,#0x22]         ;1564
0017a6  48f9              LDR      r0,|L1.7052|
0017a8  3080              ADDS     r0,r0,#0x80           ;1565
0017aa  f7fffffe          BL       atoi
0017ae  b2c0              UXTB     r0,r0                 ;1565
0017b0  f8890021          STRB     r0,[r9,#0x21]         ;1565
0017b4  f8991022          LDRB     r1,[r9,#0x22]         ;1567  ; crc_comp
0017b8  4281              CMP      r1,r0                 ;1567
0017ba  d109              BNE      |L1.6096|
0017bc  48f3              LDR      r0,|L1.7052|
0017be  3040              ADDS     r0,r0,#0x40           ;1569
0017c0  f7fffffe          BL       atoi
0017c4  f8895015          STRB     r5,[r9,#0x15]         ;1576
0017c8  f8c96048          STR      r6,[r9,#0x48]         ;1577  ; tick_process
0017cc  f889600a          STRB     r6,[r9,#0xa]          ;1579
                  |L1.6096|
0017d0  a1ef              ADR      r1,|L1.7056|
0017d2  48ee              LDR      r0,|L1.7052|
0017d4  f7fffffe          BL       strcmp
0017d8  b9d0              CBNZ     r0,|L1.6160|
0017da  48ec              LDR      r0,|L1.7052|
0017dc  3040              ADDS     r0,r0,#0x40           ;1589
0017de  f7fffffe          BL       atoi
0017e2  f8890022          STRB     r0,[r9,#0x22]         ;1589
0017e6  48e9              LDR      r0,|L1.7052|
0017e8  3080              ADDS     r0,r0,#0x80           ;1590
0017ea  f7fffffe          BL       atoi
0017ee  b2c0              UXTB     r0,r0                 ;1590
0017f0  f8890021          STRB     r0,[r9,#0x21]         ;1590
0017f4  f8991022          LDRB     r1,[r9,#0x22]         ;1592  ; crc_comp
0017f8  4281              CMP      r1,r0                 ;1592
0017fa  d109              BNE      |L1.6160|
0017fc  48e3              LDR      r0,|L1.7052|
0017fe  3040              ADDS     r0,r0,#0x40           ;1594
001800  f7fffffe          BL       atoi
001804  f8895013          STRB     r5,[r9,#0x13]         ;1599
001808  f8c96048          STR      r6,[r9,#0x48]         ;1600  ; tick_process
00180c  f889600a          STRB     r6,[r9,#0xa]          ;1602
                  |L1.6160|
001810  a1e6              ADR      r1,|L1.7084|
001812  48de              LDR      r0,|L1.7052|
001814  f7fffffe          BL       strcmp
001818  b948              CBNZ     r0,|L1.6190|
00181a  f8895010          STRB     r5,[r9,#0x10]         ;1611
00181e  f889600f          STRB     r6,[r9,#0xf]          ;1612
001822  f8c96048          STR      r6,[r9,#0x48]         ;1613  ; tick_process
001826  f889600a          STRB     r6,[r9,#0xa]          ;1614
00182a  f8c9604c          STR      r6,[r9,#0x4c]         ;1615  ; tick_process_K611
                  |L1.6190|
00182e  a1e2              ADR      r1,|L1.7096|
001830  48d6              LDR      r0,|L1.7052|
001832  f7fffffe          BL       strcmp
001836  b938              CBNZ     r0,|L1.6216|
001838  f8895011          STRB     r5,[r9,#0x11]         ;1621
00183c  f8c96048          STR      r6,[r9,#0x48]         ;1623  ; tick_process
001840  f889600a          STRB     r6,[r9,#0xa]          ;1624
001844  f8c9604c          STR      r6,[r9,#0x4c]         ;1625  ; tick_process_K611
                  |L1.6216|
001848  a1e0              ADR      r1,|L1.7116|
00184a  48d0              LDR      r0,|L1.7052|
00184c  f7fffffe          BL       strcmp
001850  b938              CBNZ     r0,|L1.6242|
001852  f8895014          STRB     r5,[r9,#0x14]         ;1631
001856  f8c96048          STR      r6,[r9,#0x48]         ;1633  ; tick_process
00185a  f889600a          STRB     r6,[r9,#0xa]          ;1634
00185e  f8c9604c          STR      r6,[r9,#0x4c]         ;1635  ; tick_process_K611
                  |L1.6242|
001862  a1e1              ADR      r1,|L1.7144|
001864  48c9              LDR      r0,|L1.7052|
001866  f7fffffe          BL       strcmp
00186a  b938              CBNZ     r0,|L1.6268|
00186c  f8895012          STRB     r5,[r9,#0x12]         ;1641
001870  f8c96048          STR      r6,[r9,#0x48]         ;1643  ; tick_process
001874  f889600a          STRB     r6,[r9,#0xa]          ;1644
001878  f8c9604c          STR      r6,[r9,#0x4c]         ;1645  ; tick_process_K611
                  |L1.6268|
00187c  f899001f          LDRB     r0,[r9,#0x1f]         ;1656  ; packet_ok
001880  2801              CMP      r0,#1                 ;1656
001882  d101              BNE      |L1.6280|
001884  f899001e          LDRB     r0,[r9,#0x1e]         ;1656  ; crc_ok
                  |L1.6280|
001888  f899001f          LDRB     r0,[r9,#0x1f]         ;1676  ; packet_ok
00188c  2801              CMP      r0,#1                 ;1676
00188e  f47faaea          BNE      |L1.3686|
001892  49be              LDR      r1,|L1.7052|
001894  2000              MOVS     r0,#0                 ;1680
                  |L1.6294|
001896  540e              STRB     r6,[r1,r0]            ;1680
001898  1c40              ADDS     r0,r0,#1              ;1680
00189a  b2c0              UXTB     r0,r0                 ;1680
00189c  2840              CMP      r0,#0x40              ;1680
00189e  d3fa              BCC      |L1.6294|
0018a0  2000              MOVS     r0,#0                 ;1681
0018a2  4651              MOV      r1,r10                ;1329
                  |L1.6308|
0018a4  540e              STRB     r6,[r1,r0]            ;1681
0018a6  1c40              ADDS     r0,r0,#1              ;1681
0018a8  b2c0              UXTB     r0,r0                 ;1681
0018aa  2840              CMP      r0,#0x40              ;1681
0018ac  d3fa              BCC      |L1.6308|
0018ae  2000              MOVS     r0,#0                 ;1682
0018b0  4659              MOV      r1,r11                ;1330
                  |L1.6322|
0018b2  540e              STRB     r6,[r1,r0]            ;1682
0018b4  1c40              ADDS     r0,r0,#1              ;1682
0018b6  b2c0              UXTB     r0,r0                 ;1682
0018b8  2840              CMP      r0,#0x40              ;1682
0018ba  d3fa              BCC      |L1.6322|
0018bc  2000              MOVS     r0,#0                 ;1683
                  |L1.6334|
0018be  5426              STRB     r6,[r4,r0]            ;1683
0018c0  1c40              ADDS     r0,r0,#1              ;1683
0018c2  b2c0              UXTB     r0,r0                 ;1683
0018c4  2840              CMP      r0,#0x40              ;1683
0018c6  d3fa              BCC      |L1.6334|
0018c8  f8c96044          STR      r6,[r9,#0x44]         ;1685  ; time_uart
0018cc  f889601c          STRB     r6,[r9,#0x1c]         ;1686
0018d0  f889600d          STRB     r6,[r9,#0xd]          ;1687
0018d4  f889601d          STRB     r6,[r9,#0x1d]         ;1688
0018d8  f889601e          STRB     r6,[r9,#0x1e]         ;1689
0018dc  f889601f          STRB     r6,[r9,#0x1f]         ;1691
0018e0  f8896005          STRB     r6,[r9,#5]            ;1692
0018e4  f8896006          STRB     r6,[r9,#6]            ;1693
0018e8  f8896008          STRB     r6,[r9,#8]            ;1694
0018ec  f8896007          STRB     r6,[r9,#7]            ;1695
0018f0  f8896009          STRB     r6,[r9,#9]            ;1696
0018f4  e8bd9ff0          POP      {r4-r12,pc}
;;;1702   
                          ENDP

                  UART1_IRQHandler PROC
;;;1704   
;;;1705   void UART1_IRQHandler(void)
0018f8  e92d41f0          PUSH     {r4-r8,lr}
;;;1706   { 
;;;1707     unsigned stat;
;;;1708       unsigned t;
;;;1709     uint32_t value;
;;;1710     uint8_t ReciveByte;
;;;1711     unsigned char letter[1];
;;;1712   
;;;1713   if (UART_GetITStatusMasked(MDR_UART1, UART_IT_RX) == SET)
0018fc  4fc1              LDR      r7,|L1.7172|
0018fe  2110              MOVS     r1,#0x10
001900  4638              MOV      r0,r7
001902  f7fffffe          BL       UART_GetITStatusMasked
;;;1714     {
;;;1715       UART_ClearITPendingBit(MDR_UART1, UART_IT_RX);
;;;1716       uart1_IT_RX_flag = SET;
001906  2501              MOVS     r5,#1
001908  4cbf              LDR      r4,|L1.7176|
00190a  2801              CMP      r0,#1                 ;1713
00190c  d01a              BEQ      |L1.6468|
;;;1717     }
;;;1718   
;;;1719     if (uart1_IT_RX_flag == SET)
00190e  6a60              LDR      r0,[r4,#0x24]  ; uart1_IT_RX_flag
001910  2801              CMP      r0,#1
001912  d115              BNE      |L1.6464|
                  |L1.6420|
;;;1720     {
;;;1721   
;;;1722       /* Clear uart2_IT_RX_flag */
;;;1723          uart1_IT_RX_flag = RESET;
001914  2600              MOVS     r6,#0
;;;1724   
;;;1725        /* Recive data */
;;;1726       ReciveByte = UART_ReceiveData (MDR_UART1);
001916  4638              MOV      r0,r7
001918  6266              STR      r6,[r4,#0x24]  ; uart1_IT_RX_flag
00191a  f7fffffe          BL       UART_ReceiveData
;;;1727   
;;;1728     letter[0]=ReciveByte;
;;;1729     
;;;1730     BufIsRead_flag=1; //флаг пришедшего байта
00191e  70a5              STRB     r5,[r4,#2]
;;;1731     
;;;1732                         //  Receive data ready.
;;;1733               { 
;;;1734                                                         //  добавить здесь: переполн. входн. буфера
;;;1735                t= letter[0];
;;;1736                if ( /*t != 0*/1 ) 
;;;1737                  {
;;;1738                    *pRcv_Buf=t;  
001920  6ba1              LDR      r1,[r4,#0x38]  ; pRcv_Buf
001922  7008              STRB     r0,[r1,#0]
;;;1739                    if ( pRcv_Buf == pcur_Rcv )         //
001924  6be0              LDR      r0,[r4,#0x3c]  ; pcur_Rcv
001926  4281              CMP      r1,r0
001928  d104              BNE      |L1.6452|
;;;1740                      { if ( CyclEnd_flag )
00192a  7820              LDRB     r0,[r4,#0]  ; CyclEnd_flag
00192c  b108              CBZ      r0,|L1.6450|
;;;1741                          { 
;;;1742                           RcvBufOverflow_flag=1;
00192e  7065              STRB     r5,[r4,#1]
;;;1743                           CyclEnd_flag = 0;
001930  7026              STRB     r6,[r4,#0]
                  |L1.6450|
;;;1744                          }
;;;1745                         //else
;;;1746                        BufIsRead_flag=1;      // все введ. данные уже считаны
001932  70a5              STRB     r5,[r4,#2]
                  |L1.6452|
;;;1747                      }
;;;1748                    if ( pRcv_Buf == (RcvBuf+buf_size-1))
001934  48b5              LDR      r0,|L1.7180|
001936  4281              CMP      r1,r0
001938  d10a              BNE      |L1.6480|
;;;1749                      {
;;;1750                       pRcv_Buf = RcvBuf;
00193a  38ff              SUBS     r0,r0,#0xff
;;;1751                       CyclEnd_flag = 0x1;
00193c  63a0              STR      r0,[r4,#0x38]  ; pRcv_Buf
00193e  7025              STRB     r5,[r4,#0]
                  |L1.6464|
;;;1752                      }
;;;1753                     else
;;;1754                      { 
;;;1755                       pRcv_Buf++;
;;;1756                      }
;;;1757                     
;;;1758                  }
;;;1759               }
;;;1760     
;;;1761     }
;;;1762   
;;;1763   
;;;1764   }
001940  e8bd81f0          POP      {r4-r8,pc}
                  |L1.6468|
001944  2110              MOVS     r1,#0x10              ;1715
001946  4638              MOV      r0,r7                 ;1715
001948  f7fffffe          BL       UART_ClearITPendingBit
00194c  6265              STR      r5,[r4,#0x24]         ;1716  ; uart1_IT_RX_flag
00194e  e7e1              B        |L1.6420|
                  |L1.6480|
001950  1c49              ADDS     r1,r1,#1              ;1716
001952  63a1              STR      r1,[r4,#0x38]         ;1755  ; pRcv_Buf
001954  e7f4              B        |L1.6464|
;;;1765   
                          ENDP

                  UART2_IRQHandler PROC
;;;1775   *******************************************************************************/
;;;1776   void UART2_IRQHandler(void)
001956  e92d41f0          PUSH     {r4-r8,lr}
;;;1777   {
;;;1778     unsigned stat;
;;;1779       unsigned t;
;;;1780     uint32_t value;
;;;1781     uint8_t ReciveByte;
;;;1782     unsigned char letter[1];
;;;1783   
;;;1784   if (UART_GetITStatusMasked(MDR_UART2, UART_IT_RX) == SET)
00195a  4fad              LDR      r7,|L1.7184|
00195c  2110              MOVS     r1,#0x10
00195e  4638              MOV      r0,r7
001960  f7fffffe          BL       UART_GetITStatusMasked
;;;1785     {
;;;1786       UART_ClearITPendingBit(MDR_UART2, UART_IT_RX);
;;;1787       uart2_IT_RX_flag = SET;
001964  2501              MOVS     r5,#1
001966  4ca8              LDR      r4,|L1.7176|
001968  2801              CMP      r0,#1                 ;1784
00196a  d019              BEQ      |L1.6560|
;;;1788     }
;;;1789   
;;;1790     if (uart2_IT_RX_flag == SET)
00196c  6aa0              LDR      r0,[r4,#0x28]  ; uart2_IT_RX_flag
00196e  2801              CMP      r0,#1
001970  d1e6              BNE      |L1.6464|
                  |L1.6514|
;;;1791     {
;;;1792   
;;;1793       /* Clear uart2_IT_RX_flag */
;;;1794          uart2_IT_RX_flag = RESET;
001972  2600              MOVS     r6,#0
;;;1795   
;;;1796        /* Recive data */
;;;1797       ReciveByte = UART_ReceiveData (MDR_UART2);
001974  4638              MOV      r0,r7
001976  62a6              STR      r6,[r4,#0x28]  ; uart2_IT_RX_flag
001978  f7fffffe          BL       UART_ReceiveData
;;;1798     
;;;1799   
;;;1800     
;;;1801     letter[0]=ReciveByte;
;;;1802   
;;;1803     BufIsRead_flag=1;   //флаг пришедшего байта
00197c  70a5              STRB     r5,[r4,#2]
;;;1804     
;;;1805                         //  Receive data ready.
;;;1806               { 
;;;1807                                                         //  добавить здесь: переполн. входн. буфера
;;;1808                t= letter[0];
;;;1809                if ( /*t != 0*/1 ) 
;;;1810                  {
;;;1811                    *pRcv_Buf=t;  
00197e  6ba1              LDR      r1,[r4,#0x38]  ; pRcv_Buf
001980  7008              STRB     r0,[r1,#0]
;;;1812                    if ( pRcv_Buf == pcur_Rcv )         //
001982  6be0              LDR      r0,[r4,#0x3c]  ; pcur_Rcv
001984  4281              CMP      r1,r0
001986  d104              BNE      |L1.6546|
;;;1813                      { if ( CyclEnd_flag )
001988  7820              LDRB     r0,[r4,#0]  ; CyclEnd_flag
00198a  b108              CBZ      r0,|L1.6544|
;;;1814                          { 
;;;1815                           RcvBufOverflow_flag=1;
00198c  7065              STRB     r5,[r4,#1]
;;;1816                           CyclEnd_flag = 0;
00198e  7026              STRB     r6,[r4,#0]
                  |L1.6544|
;;;1817                          }
;;;1818                         //else
;;;1819                        BufIsRead_flag=1;      // все введ. данные уже считаны
001990  70a5              STRB     r5,[r4,#2]
                  |L1.6546|
;;;1820                      }
;;;1821                    if ( pRcv_Buf == (RcvBuf+buf_size-1))
001992  489e              LDR      r0,|L1.7180|
001994  4281              CMP      r1,r0
001996  d109              BNE      |L1.6572|
;;;1822                      {
;;;1823                       pRcv_Buf = RcvBuf;
001998  38ff              SUBS     r0,r0,#0xff
;;;1824                       CyclEnd_flag = 0x1;
00199a  63a0              STR      r0,[r4,#0x38]  ; pRcv_Buf
00199c  7025              STRB     r5,[r4,#0]
;;;1825                      }
;;;1826                     else
;;;1827                      { 
;;;1828                       pRcv_Buf++;
;;;1829                      }
;;;1830                     
;;;1831                  }
;;;1832               }
;;;1833          }  
;;;1834   }
00199e  e7cf              B        |L1.6464|
                  |L1.6560|
0019a0  2110              MOVS     r1,#0x10              ;1786
0019a2  4638              MOV      r0,r7                 ;1786
0019a4  f7fffffe          BL       UART_ClearITPendingBit
0019a8  62a5              STR      r5,[r4,#0x28]         ;1787  ; uart2_IT_RX_flag
0019aa  e7e2              B        |L1.6514|
                  |L1.6572|
0019ac  1c49              ADDS     r1,r1,#1              ;1787
0019ae  63a1              STR      r1,[r4,#0x38]         ;1828  ; pRcv_Buf
0019b0  e7c6              B        |L1.6464|
;;;1835   
                          ENDP

                  UART_control PROC
;;;1838   
;;;1839   void UART_control (void)
0019b2  b510              PUSH     {r4,lr}
;;;1840   
;;;1841   {
;;;1842        if ((BufIsRead_flag==1)) // 
0019b4  4c94              LDR      r4,|L1.7176|
0019b6  78a0              LDRB     r0,[r4,#2]  ; BufIsRead_flag
0019b8  2801              CMP      r0,#1
0019ba  d10e              BNE      |L1.6618|
;;;1843              
;;;1844               {            	
;;;1845                  getStr(sr,&lsr);
0019bc  4893              LDR      r0,|L1.7180|
0019be  1ce1              ADDS     r1,r4,#3
0019c0  3041              ADDS     r0,r0,#0x41
0019c2  f7fffffe          BL       getStr
;;;1846                  BufIsRead_flag=0;
0019c6  2000              MOVS     r0,#0
0019c8  70a0              STRB     r0,[r4,#2]
;;;1847   			   //ZTransf(sr,lsr);
;;;1848                  IO(sr);
0019ca  4890              LDR      r0,|L1.7180|
0019cc  3041              ADDS     r0,r0,#0x41
0019ce  f7fffffe          BL       ||IO||
;;;1849   			   
;;;1850   		  	   RX_485();
0019d2  e8bd4010          POP      {r4,lr}
0019d6  f7ffbffe          B.W      RX_485
                  |L1.6618|
;;;1851                       
;;;1852               } 
;;;1853   }
0019da  bd10              POP      {r4,pc}
;;;1854   
                          ENDP

                  LD_control PROC
;;;1857   
;;;1858   uint8_t LD_control (void) // если 0 - нет захватов, 1 - захват гетеродина, 2 - захват излучения, 3 - оба в захвате.
0019dc  b510              PUSH     {r4,lr}
;;;1859   {
;;;1860     uint8_t a=0;
;;;1861    
;;;1862     a =      a|PORT_ReadInputDataBit(MDR_PORTE,PORT_Pin_1); //чтение состояния сигнала Lock Detect мезанина Излучения
0019de  2102              MOVS     r1,#2
0019e0  488c              LDR      r0,|L1.7188|
0019e2  f7fffffe          BL       PORT_ReadInputDataBit
0019e6  4604              MOV      r4,r0
;;;1863     a = (a<<1)|PORT_ReadInputDataBit(MDR_PORTC,PORT_Pin_2); //чтение состояния сигнала Lock Detect мезанина Гетеродина
0019e8  2104              MOVS     r1,#4
0019ea  488b              LDR      r0,|L1.7192|
0019ec  f7fffffe          BL       PORT_ReadInputDataBit
0019f0  ea400044          ORR      r0,r0,r4,LSL #1
0019f4  b2c0              UXTB     r0,r0
;;;1864   
;;;1865     return a;
;;;1866   
;;;1867   }
0019f6  bd10              POP      {r4,pc}
;;;1868   
                          ENDP

                  INIT_FOCH PROC
;;;1869   unsigned char INIT_FOCH (unsigned char z)
0019f8  b510              PUSH     {r4,lr}
;;;1870   {
0019fa  4604              MOV      r4,r0
;;;1871     
;;;1872   	//--------инициализация ФАПЧ-1--------------
;;;1873   	if (z==5)  IO("~6 ФАПЧ2_init;");
0019fc  2805              CMP      r0,#5
0019fe  d010              BEQ      |L1.6690|
;;;1874   
;;;1875   	if (z==8)  IO("~6 ФАПЧ2_Kdiv1()=10;");
001a00  2c08              CMP      r4,#8
001a02  d010              BEQ      |L1.6694|
;;;1876   
;;;1877   	if (z==7)  IO("~6 ФАПЧ2_Kdiv2():20;");
001a04  2c07              CMP      r4,#7
001a06  d010              BEQ      |L1.6698|
;;;1878   	   
;;;1879   	if (z==6)  IO("~6 ФАПЧ2_Kdiv3():3600;");
001a08  2c06              CMP      r4,#6
001a0a  d010              BEQ      |L1.6702|
;;;1880   
;;;1881   	//--------инициализация ФАПЧ-2--------------
;;;1882   	 
;;;1883   	if (z==1)  IO("~6 ФАПЧ1_init;");
001a0c  2c01              CMP      r4,#1
001a0e  d010              BEQ      |L1.6706|
;;;1884   
;;;1885   	if (z==4)  IO("~6 ФАПЧ1_Kdiv1()=10;");
001a10  2c04              CMP      r4,#4
001a12  d010              BEQ      |L1.6710|
;;;1886   
;;;1887   	if (z==3)  IO("~6 ФАПЧ1_Kdiv2():10;");
001a14  2c03              CMP      r4,#3
001a16  d010              BEQ      |L1.6714|
;;;1888   
;;;1889   	if (z==2)  IO("~6 ФАПЧ1_Kdiv3():2000;");
001a18  2c02              CMP      r4,#2
001a1a  d012              BEQ      |L1.6722|
;;;1890   
;;;1891   	//-------контроль захватов-----------------
;;;1892   
;;;1893   	 if (z==9) {IO("~6 LD_control;");FLAG_INIT_FOCH=1;z=0;}
001a1c  2c09              CMP      r4,#9
001a1e  d012              BEQ      |L1.6726|
001a20  e018              B        |L1.6740|
                  |L1.6690|
001a22  a07e              ADR      r0,|L1.7196|
001a24  e00a              B        |L1.6716|
                  |L1.6694|
001a26  a081              ADR      r0,|L1.7212|
001a28  e008              B        |L1.6716|
                  |L1.6698|
001a2a  a086              ADR      r0,|L1.7236|
001a2c  e006              B        |L1.6716|
                  |L1.6702|
001a2e  a08b              ADR      r0,|L1.7260|
001a30  e004              B        |L1.6716|
                  |L1.6706|
001a32  a090              ADR      r0,|L1.7284|
001a34  e002              B        |L1.6716|
                  |L1.6710|
001a36  a093              ADR      r0,|L1.7300|
001a38  e000              B        |L1.6716|
                  |L1.6714|
001a3a  a098              ADR      r0,|L1.7324|
                  |L1.6716|
001a3c  f7fffffe          BL       ||IO||
001a40  e008              B        |L1.6740|
                  |L1.6722|
001a42  a09c              ADR      r0,|L1.7348|
001a44  e7fa              B        |L1.6716|
                  |L1.6726|
001a46  a0a1              ADR      r0,|L1.7372|
001a48  f7fffffe          BL       ||IO||
001a4c  496e              LDR      r1,|L1.7176|
001a4e  2001              MOVS     r0,#1
001a50  2400              MOVS     r4,#0
001a52  75c8              STRB     r0,[r1,#0x17]
                  |L1.6740|
001a54  1c64              ADDS     r4,r4,#1
;;;1894   	 
;;;1895   	 z = z+1;
001a56  b2e0              UXTB     r0,r4
;;;1896   	 
;;;1897   	return z;
;;;1898   }
001a58  bd10              POP      {r4,pc}
;;;1899   
                          ENDP

                  Led_Zahvat PROC
;;;1900   void Led_Zahvat (unsigned char a)
001a5a  4b6f              LDR      r3,|L1.7192|
;;;1901   {
;;;1902   	static unsigned char l;
;;;1903   	
;;;1904   	  if (a==0x00) l=0;
001a5c  496a              LDR      r1,|L1.7176|
001a5e  b150              CBZ      r0,|L1.6774|
001a60  460a              MOV      r2,r1
001a62  7ed2              LDRB     r2,[r2,#0x1b]
;;;1905         if (a==0x01) l=~l;
001a64  43d2              MVNS     r2,r2
001a66  b2d2              UXTB     r2,r2
001a68  2801              CMP      r0,#1
001a6a  d007              BEQ      |L1.6780|
;;;1906         if (a==0x02) l=~l;
001a6c  2802              CMP      r0,#2
001a6e  d005              BEQ      |L1.6780|
;;;1907         if (a==0x03) l=0xff;
001a70  2803              CMP      r0,#3
001a72  d00a              BEQ      |L1.6794|
001a74  e003              B        |L1.6782|
                  |L1.6774|
001a76  2000              MOVS     r0,#0                 ;1904
001a78  76c8              STRB     r0,[r1,#0x1b]         ;1904
001a7a  e009              B        |L1.6800|
                  |L1.6780|
001a7c  76ca              STRB     r2,[r1,#0x1b]         ;1905
                  |L1.6782|
;;;1908   	  if (l>0u) ZAHVAT_ON; else ZAHVAT_OFF;
001a7e  7ec8              LDRB     r0,[r1,#0x1b]  ; l
001a80  b130              CBZ      r0,|L1.6800|
                  |L1.6786|
001a82  2102              MOVS     r1,#2
001a84  4618              MOV      r0,r3
001a86  f7ffbffe          B.W      PORT_ResetBits
                  |L1.6794|
001a8a  20ff              MOVS     r0,#0xff              ;1907
001a8c  76c8              STRB     r0,[r1,#0x1b]         ;1907
001a8e  e7f8              B        |L1.6786|
                  |L1.6800|
001a90  2102              MOVS     r1,#2
001a92  4618              MOV      r0,r3
001a94  f7ffbffe          B.W      PORT_SetBits
;;;1909   
;;;1910   }
;;;1911   
                          ENDP

                  Watch_DOG PROC
;;;1912   
;;;1913   unsigned char Watch_DOG (unsigned char i)
001a98  b510              PUSH     {r4,lr}
;;;1914   
;;;1915   {
001a9a  4604              MOV      r4,r0
;;;1916     if (i==1) LED2_OFF;
001a9c  488f              LDR      r0,|L1.7388|
001a9e  2c01              CMP      r4,#1
001aa0  d008              BEQ      |L1.6836|
;;;1917   
;;;1918     if (i==2) LED2_ON;           
001aa2  2c02              CMP      r4,#2
001aa4  d008              BEQ      |L1.6840|
;;;1919   
;;;1920     if (i==3) LED1_OFF;          
001aa6  2c03              CMP      r4,#3
001aa8  d008              BEQ      |L1.6844|
;;;1921   
;;;1922     if (i==4) LED1_ON;
001aaa  2c04              CMP      r4,#4
001aac  d00a              BEQ      |L1.6852|
;;;1923     
;;;1924     if (i==5) i=0;
001aae  2c05              CMP      r4,#5
001ab0  d00c              BEQ      |L1.6860|
001ab2  e00c              B        |L1.6862|
                  |L1.6836|
001ab4  2180              MOVS     r1,#0x80              ;1916
001ab6  e002              B        |L1.6846|
                  |L1.6840|
001ab8  2180              MOVS     r1,#0x80              ;1918
001aba  e004              B        |L1.6854|
                  |L1.6844|
001abc  2140              MOVS     r1,#0x40              ;1920
                  |L1.6846|
001abe  f7fffffe          BL       PORT_SetBits
001ac2  e004              B        |L1.6862|
                  |L1.6852|
001ac4  2140              MOVS     r1,#0x40              ;1922
                  |L1.6854|
001ac6  f7fffffe          BL       PORT_ResetBits
001aca  e000              B        |L1.6862|
                  |L1.6860|
001acc  2400              MOVS     r4,#0
                  |L1.6862|
001ace  1c64              ADDS     r4,r4,#1
;;;1925     
;;;1926     i++;
001ad0  b2e0              UXTB     r0,r4
;;;1927     
;;;1928     return i;
;;;1929    }
001ad2  bd10              POP      {r4,pc}
;;;1930    
                          ENDP

                  main PROC
;;;1937   
;;;1938   int main()
001ad4  2500              MOVS     r5,#0
;;;1939   {
;;;1940   	unsigned int i=0;
;;;1941   	unsigned int j=0;
001ad6  462c              MOV      r4,r5
;;;1942   
;;;1943   
;;;1944       RegisterInits();
001ad8  f7fffffe          BL       RegisterInits
;;;1945   
;;;1946       MltPinCfg ();
001adc  f7fffffe          BL       MltPinCfg
;;;1947       LedPinGfg ();
001ae0  f7fffffe          BL       LedPinGfg
;;;1948   
;;;1949       Uart1PinCfg();
001ae4  f7fffffe          BL       Uart1PinCfg
;;;1950       Uart1Setup();
001ae8  f7fffffe          BL       Uart1Setup
;;;1951       
;;;1952   
;;;1953       Uart2PinCfg();
001aec  f7fffffe          BL       Uart2PinCfg
;;;1954       Uart2Setup();
001af0  f7fffffe          BL       Uart2Setup
;;;1955   
;;;1956       SPI_init();
001af4  f7fffffe          BL       SPI_init
;;;1957   
;;;1958       pcur_Tr= TrBuf;
001af8  4e43              LDR      r6,|L1.7176|
001afa  4879              LDR      r0,|L1.7392|
;;;1959       pTr_Buf= TrBuf;
;;;1960   
;;;1961       pcur_Rcv= RcvBuf;
;;;1962       pRcv_Buf= RcvBuf;
;;;1963   
;;;1964      for (i=0;i<Bufer_size;i++)       strng[i]     =0x0;
001afc  2100              MOVS     r1,#0
001afe  6370              STR      r0,[r6,#0x34]         ;1959  ; pcur_Tr
001b00  6330              STR      r0,[r6,#0x30]         ;1961  ; pTr_Buf
001b02  f5007080          ADD      r0,r0,#0x100          ;1961
001b06  63f0              STR      r0,[r6,#0x3c]         ;1962  ; pcur_Rcv
001b08  63b0              STR      r0,[r6,#0x38]  ; pRcv_Buf
001b0a  f50070c0          ADD      r0,r0,#0x180
                  |L1.6926|
001b0e  5541              STRB     r1,[r0,r5]
001b10  1c6d              ADDS     r5,r5,#1
001b12  2d40              CMP      r5,#0x40
001b14  d3fb              BCC      |L1.6926|
;;;1965      for (i=0;i<Bufer_size;i++)          sr[i]     =0x0;
001b16  4a3d              LDR      r2,|L1.7180|
001b18  2000              MOVS     r0,#0
001b1a  3241              ADDS     r2,r2,#0x41
                  |L1.6940|
001b1c  5411              STRB     r1,[r2,r0]
001b1e  1c40              ADDS     r0,r0,#1
001b20  2840              CMP      r0,#0x40
001b22  d3fb              BCC      |L1.6940|
;;;1966      for (i=0;i<Bufer_size;i++)        Word[i]     =0x0;
001b24  4a19              LDR      r2,|L1.7052|
001b26  2000              MOVS     r0,#0
                  |L1.6952|
001b28  5411              STRB     r1,[r2,r0]
001b2a  1c40              ADDS     r0,r0,#1
001b2c  2840              CMP      r0,#0x40
001b2e  d3fb              BCC      |L1.6952|
;;;1967      for (i=0;i<Bufer_size;i++)   DATA_Word[i]     =0x0;
001b30  4a16              LDR      r2,|L1.7052|
001b32  2000              MOVS     r0,#0
001b34  3240              ADDS     r2,r2,#0x40
                  |L1.6966|
001b36  5411              STRB     r1,[r2,r0]
001b38  1c40              ADDS     r0,r0,#1
001b3a  2840              CMP      r0,#0x40
001b3c  d3fb              BCC      |L1.6966|
;;;1968      for (i=0;i<Bufer_size;i++)  DATA_Word2[i]     =0x0;  
001b3e  4a13              LDR      r2,|L1.7052|
001b40  2000              MOVS     r0,#0
001b42  3280              ADDS     r2,r2,#0x80
                  |L1.6980|
001b44  5411              STRB     r1,[r2,r0]
001b46  1c40              ADDS     r0,r0,#1
001b48  2840              CMP      r0,#0x40
001b4a  d3fb              BCC      |L1.6980|
;;;1969      for (i=0;i<Bufer_size;i++)       InOut[i]     =0x0;
001b4c  4a0f              LDR      r2,|L1.7052|
001b4e  2000              MOVS     r0,#0
001b50  3a40              SUBS     r2,r2,#0x40
                  |L1.6994|
001b52  5411              STRB     r1,[r2,r0]
001b54  1c40              ADDS     r0,r0,#1
001b56  e0c5              B        |L1.7396|
                  |L1.7000|
001b58  eff0e8ed          DCB      239,240,232,237,255,235," ",194,234,235,254,247,232,242,252
001b5c  ffeb20c2
001b60  eaebfef7
001b64  e8f2fc  
001b67  5ff1e8ed          DCB      "_",241,232,237,242,229,231,224,242,238,240,"\r",0
001b6b  f2e5e7e0
001b6f  f2eef00d
001b73  00      
                  |L1.7028|
001b74  f1e8e3ed          DCB      241,232,227,237,224,235,251,"_",231,224,245,226,224,242,224
001b78  e0ebfb5f
001b7c  e7e0f5e2
001b80  e0f2e0  
001b83  5f31d32d          DCB      "_1",211,"-",202,"611",0
001b87  ca363131
001b8b  00      
                  |L1.7052|
                          DCD      ||.bss||+0x348
                  |L1.7056|
001b90  e7ede0f7          DCB      231,237,224,247,229,237,232,229,"_",243,240,238,226,237,229
001b94  e5ede8e5
001b98  5ff3f0ee
001b9c  e2ede5  
001b9f  e95f31d3          DCB      233,"_1",211,"-",202,"611",0
001ba3  2dca3631
001ba7  3100    
001ba9  00                DCB      0
001baa  00                DCB      0
001bab  00                DCB      0
                  |L1.7084|
001bac  696e6974          DCB      "init_K611",0
001bb0  5f4b3631
001bb4  3100    
001bb6  00                DCB      0
001bb7  00                DCB      0
                  |L1.7096|
001bb8  f1eef1f2          DCB      241,238,241,242,238,255,237,232,229,"_1",211,"-",202,"61"
001bbc  eeffede8
001bc0  e55f31d3
001bc4  2dca3631
001bc8  3100              DCB      "1",0
001bca  00                DCB      0
001bcb  00                DCB      0
                  |L1.7116|
001bcc  f1e8e3ed          DCB      241,232,227,237,224,235,251,"_",234,238,237,242,240,238,235
001bd0  e0ebfb5f
001bd4  eaeeedf2
001bd8  f0eeeb  
001bdb  ff5f31d3          DCB      255,"_1",211,"-",202,"611",0
001bdf  2dca3631
001be3  3100    
001be5  00                DCB      0
001be6  00                DCB      0
001be7  00                DCB      0
                  |L1.7144|
001be8  eaeeedf2          DCB      234,238,237,242,240,238,235,252,"_",243,240,238,226,237,229
001bec  f0eeebfc
001bf0  5ff3f0ee
001bf4  e2ede5  
001bf7  e95f31d3          DCB      233,"_1",211,"-",202,"611",0
001bfb  2dca3631
001bff  3100    
001c01  00                DCB      0
001c02  00                DCB      0
001c03  00                DCB      0
                  |L1.7172|
                          DCD      0x40030000
                  |L1.7176|
                          DCD      ||area_number.15||
                  |L1.7180|
                          DCD      ||.bss||+0x247
                  |L1.7184|
                          DCD      0x40038000
                  |L1.7188|
                          DCD      0x400c8000
                  |L1.7192|
                          DCD      0x400b8000
                  |L1.7196|
001c1c  7e3620d4          DCB      "~6 ",212,192,207,215,"2_init;",0
001c20  c0cfd732
001c24  5f696e69
001c28  743b00  
001c2b  00                DCB      0
                  |L1.7212|
001c2c  7e3620d4          DCB      "~6 ",212,192,207,215,"2_Kdiv1()=10;",0
001c30  c0cfd732
001c34  5f4b6469
001c38  76312829
001c3c  3d31303b
001c40  00      
001c41  00                DCB      0
001c42  00                DCB      0
001c43  00                DCB      0
                  |L1.7236|
001c44  7e3620d4          DCB      "~6 ",212,192,207,215,"2_Kdiv2():20;",0
001c48  c0cfd732
001c4c  5f4b6469
001c50  76322829
001c54  3a32303b
001c58  00      
001c59  00                DCB      0
001c5a  00                DCB      0
001c5b  00                DCB      0
                  |L1.7260|
001c5c  7e3620d4          DCB      "~6 ",212,192,207,215,"2_Kdiv3():3600;",0
001c60  c0cfd732
001c64  5f4b6469
001c68  76332829
001c6c  3a333630
001c70  303b00  
001c73  00                DCB      0
                  |L1.7284|
001c74  7e3620d4          DCB      "~6 ",212,192,207,215,"1_init;",0
001c78  c0cfd731
001c7c  5f696e69
001c80  743b00  
001c83  00                DCB      0
                  |L1.7300|
001c84  7e3620d4          DCB      "~6 ",212,192,207,215,"1_Kdiv1()=10;",0
001c88  c0cfd731
001c8c  5f4b6469
001c90  76312829
001c94  3d31303b
001c98  00      
001c99  00                DCB      0
001c9a  00                DCB      0
001c9b  00                DCB      0
                  |L1.7324|
001c9c  7e3620d4          DCB      "~6 ",212,192,207,215,"1_Kdiv2():10;",0
001ca0  c0cfd731
001ca4  5f4b6469
001ca8  76322829
001cac  3a31303b
001cb0  00      
001cb1  00                DCB      0
001cb2  00                DCB      0
001cb3  00                DCB      0
                  |L1.7348|
001cb4  7e3620d4          DCB      "~6 ",212,192,207,215,"1_Kdiv3():2000;",0
001cb8  c0cfd731
001cbc  5f4b6469
001cc0  76332829
001cc4  3a323030
001cc8  303b00  
001ccb  00                DCB      0
                  |L1.7372|
001ccc  7e36204c          DCB      "~6 LD_control;",0
001cd0  445f636f
001cd4  6e74726f
001cd8  6c3b00  
001cdb  00                DCB      0
                  |L1.7388|
                          DCD      0x400a8000
                  |L1.7392|
                          DCD      ||.bss||+0x48
                  |L1.7396|
001ce4  2840              CMP      r0,#0x40
001ce6  f4ffaf34          BCC      |L1.6994|
;;;1970   
;;;1971      	i=0;
001cea  2500              MOVS     r5,#0
;;;1972   
;;;1973     // 	Menu1();
;;;1974   
;;;1975   	RX_485();
001cec  f7fffffe          BL       RX_485
;;;1976   
;;;1977       PWR_ON; //включаем светодиод питания на лицевой панели
001cf0  f44f7180          MOV      r1,#0x100
001cf4  4820              LDR      r0,|L1.7544|
001cf6  f7fffffe          BL       PORT_ResetBits
;;;1978   
;;;1979   
;;;1980    while(1)
;;;1981    {
;;;1982   			if (i<INIT_FOCH_delay) i=i+1; else i=0;
;;;1983   			if (j<led_delay)       j=j+1; else j=0;
001cfa  f8df8080          LDR      r8,|L1.7548|
001cfe  f8df9080          LDR      r9,|L1.7552|
001d02  e001              B        |L1.7432|
                  |L1.7428|
001d04  42bd              CMP      r5,r7                 ;1982
001d06  d201              BCS      |L1.7436|
                  |L1.7432|
001d08  1c6d              ADDS     r5,r5,#1              ;1982
001d0a  e000              B        |L1.7438|
                  |L1.7436|
001d0c  2500              MOVS     r5,#0                 ;1982
                  |L1.7438|
001d0e  4647              MOV      r7,r8
001d10  42bc              CMP      r4,r7
001d12  d201              BCS      |L1.7448|
001d14  1c64              ADDS     r4,r4,#1
001d16  e000              B        |L1.7450|
                  |L1.7448|
001d18  2400              MOVS     r4,#0
                  |L1.7450|
;;;1984   
;;;1985                UART_control ();
001d1a  f7fffffe          BL       UART_control
;;;1986   
;;;1987                flag_status_ZAHVAT=LD_control (); //контроль сигналов захвата
001d1e  f7fffffe          BL       LD_control
001d22  75b0              STRB     r0,[r6,#0x16]
;;;1988   
;;;1989               if (j==led_delay)  FLAG_LED_n=Watch_DOG (FLAG_LED_n);
001d24  42bc              CMP      r4,r7
001d26  d103              BNE      |L1.7472|
001d28  7eb0              LDRB     r0,[r6,#0x1a]  ; FLAG_LED_n
001d2a  f7fffffe          BL       Watch_DOG
001d2e  76b0              STRB     r0,[r6,#0x1a]
                  |L1.7472|
;;;1990       
;;;1991   			if (j==led_delay) Led_Zahvat (flag_status_ZAHVAT); //индикация сигналов захвата на лицевой панели
001d30  42bc              CMP      r4,r7
001d32  d102              BNE      |L1.7482|
001d34  7db0              LDRB     r0,[r6,#0x16]  ; flag_status_ZAHVAT
001d36  f7fffffe          BL       Led_Zahvat
                  |L1.7482|
;;;1992   	
;;;1993               if ((i==INIT_FOCH_delay)&&(FLAG_INIT_FOCH==0)) {FLAG_INIT_n_FOCH=INIT_FOCH (FLAG_INIT_n_FOCH);} //инициализация ФАПЧей
001d3a  464f              MOV      r7,r9
001d3c  42bd              CMP      r5,r7
001d3e  d105              BNE      |L1.7500|
001d40  7df0              LDRB     r0,[r6,#0x17]  ; FLAG_INIT_FOCH
001d42  b918              CBNZ     r0,|L1.7500|
001d44  7e70              LDRB     r0,[r6,#0x19]  ; FLAG_INIT_n_FOCH
001d46  f7fffffe          BL       INIT_FOCH
001d4a  7670              STRB     r0,[r6,#0x19]
                  |L1.7500|
;;;1994   				
;;;1995               if ((i==INIT_FOCH_delay)&&(FLAG_INIT_MENU==0)) {Menu1();FLAG_INIT_MENU=1;}
001d4c  42bd              CMP      r5,r7
001d4e  d1d9              BNE      |L1.7428|
001d50  7e30              LDRB     r0,[r6,#0x18]  ; FLAG_INIT_MENU
001d52  2800              CMP      r0,#0
001d54  d1d6              BNE      |L1.7428|
001d56  f7fffffe          BL       Menu1
001d5a  2001              MOVS     r0,#1
001d5c  7630              STRB     r0,[r6,#0x18]
001d5e  e7d1              B        |L1.7428|
;;;1996   
;;;1997         
;;;1998    }
;;;1999    
;;;2000   }
;;;2001   
                          ENDP

                  NVIC_EnableIRQ PROC
;;;1327    */
;;;1328   __STATIC_INLINE void NVIC_EnableIRQ(IRQn_Type IRQn)
001d60  f000021f          AND      r2,r0,#0x1f
;;;1329   {
;;;1330     NVIC->ISER[((uint32_t)(IRQn) >> 5)] = (1 << ((uint32_t)(IRQn) & 0x1F)); /* enable interrupt */
001d64  2101              MOVS     r1,#1
001d66  4091              LSLS     r1,r1,r2
001d68  0940              LSRS     r0,r0,#5
001d6a  0080              LSLS     r0,r0,#2
001d6c  f10020e0          ADD      r0,r0,#0xe000e000
001d70  f8c01100          STR      r1,[r0,#0x100]
;;;1331   }
001d74  4770              BX       lr
;;;1332   
                          ENDP

001d76  0000              DCW      0x0000
                  |L1.7544|
                          DCD      0x400b0000
                  |L1.7548|
                          DCD      0x00011170
                  |L1.7552|
                          DCD      0x000186a0

                          AREA ||.bss||, DATA, NOINIT, ALIGN=2

                  PortInit
                          %        40
                  UART_InitStructure
                          %        16
                  sSSP
                          %        16
                  TrBuf
                          %        256
                  RcvBuf
                          %        256
                  ||s3||
                          %        64
                  ||sr||
                          %        64
                  strng
                          %        64
                  InOut
                          %        64
                  Word
                          %        64
                  DATA_Word
                          %        64
                  DATA_Word2
                          %        64

                          AREA ||area_number.4||, DATA, NOINIT, ALIGN=0

                          EXPORTAS ||area_number.4||, ||.bss||
                  packet
                          %        128

                          AREA ||area_number.5||, DATA, NOINIT, ALIGN=0

                          EXPORTAS ||area_number.5||, ||.bss||
                  ||s1||
                          %        64

                          AREA ||area_number.6||, DATA, NOINIT, ALIGN=0

                          EXPORTAS ||area_number.6||, ||.bss||
                  ||s2||
                          %        64

                          AREA ||area_number.7||, DATA, NOINIT, ALIGN=0

                          EXPORTAS ||area_number.7||, ||.bss||
                  CRC_m
                          %        18

                          AREA ||.data||, DATA, ALIGN=0

                  TxIdx
000000  00                DCB      0x00

                          AREA ||area_number.10||, DATA, ALIGN=0

                          EXPORTAS ||area_number.10||, ||.data||
                  RxIdx
000000  00                DCB      0x00

                          AREA ||area_number.11||, DATA, ALIGN=0

                          EXPORTAS ||area_number.11||, ||.data||
                  DataTr_flag
000000  00                DCB      0x00

                          AREA ||area_number.12||, DATA, ALIGN=0

                          EXPORTAS ||area_number.12||, ||.data||
                  Data_in_port
000000  00                DCB      0x00

                          AREA ||area_number.13||, DATA, ALIGN=0

                          EXPORTAS ||area_number.13||, ||.data||
                  DontConnect_flag
000000  00                DCB      0x00

                          AREA ||area_number.14||, DATA, ALIGN=2

                          EXPORTAS ||area_number.14||, ||.data||
                  CntDown
                          DCD      0x00000000

                          AREA ||area_number.15||, DATA, ALIGN=2

                          EXPORTAS ||area_number.15||, ||.data||
                  CyclEnd_flag
000000  00                DCB      0x00
                  RcvBufOverflow_flag
000001  00                DCB      0x00
                  BufIsRead_flag
000002  00                DCB      0x00
                  lsr
000003  00                DCB      0x00
                  Adress
000004  36                DCB      0x36
                  index_word
000005  00                DCB      0x00
                  index_data_word
000006  00                DCB      0x00
                  index_data_word2
000007  00                DCB      0x00
                  data_flag
000008  00                DCB      0x00
                  data_flag2
000009  00                DCB      0x00
                  sch_obmen
00000a  00                DCB      0x00
                  flag_uart_trcv
00000b  00                DCB      0x00
                  otvet_flag
00000c  00                DCB      0x00
                  index1
00000d  00                DCB      0x00
                  sym1
00000e  00                DCB      0x00
                  Flag_K611
00000f  00                DCB      0x00
                  Flag_init_K611
000010  00                DCB      0x00
                  Flag_control_K611
000011  00                DCB      0x00
                  Flag_control_sig_K611
000012  00                DCB      0x00
                  Flag_control_end_K611
000013  00                DCB      0x00
                  Flag_zahvat_sig_K611
000014  00                DCB      0x00
                  Flag_zahvat_end_K611
000015  00                DCB      0x00
                  flag_status_ZAHVAT
000016  00                DCB      0x00
                  FLAG_INIT_FOCH
000017  00                DCB      0x00
                  FLAG_INIT_MENU
000018  00                DCB      0x00
                  FLAG_INIT_n_FOCH
000019  00                DCB      0x00
                  FLAG_LED_n
00001a  00                DCB      0x00
                  l
00001b  00                DCB      0x00
                  packet_flag
00001c  00                DCB      0x00
                  ||crc||
00001d  00                DCB      0x00
                  crc_ok
00001e  00                DCB      0x00
                  packet_ok
00001f  00                DCB      0x00
                  ink1
000020  00                DCB      0x00
                  crc_input
000021  00                DCB      0x00
                  crc_comp
000022  0000              DCB      0x00,0x00
                  uart1_IT_RX_flag
                          DCD      0x00000000
                  uart2_IT_RX_flag
                          DCD      0x00000000
                  sch_pachek_test
                          DCD      0x00000000
                  pTr_Buf
                          DCD      0x00000000
                  pcur_Tr
                          DCD      0x00000000
                  pRcv_Buf
                          DCD      0x00000000
                  pcur_Rcv
                          DCD      0x00000000
                  dFo1
                          DCD      0x00000000
                  time_uart
                          DCD      0x00000000
                  tick_process
                          DCD      0x00000000
                  tick_process_K611
                          DCD      0x00000000
                  reg_FAPCH1
000050  d4c0cfd7          DCB      0xd4,0xc0,0xcf,0xd7
000054  31001000          DCB      0x31,0x00,0x10,0x00
000058  f0000000          DCB      0xf0,0x00,0x00,0x00
                  reg_FAPCH2
00005c  d4c0cfd7          DCB      0xd4,0xc0,0xcf,0xd7
000060  32001000          DCB      0x32,0x00,0x10,0x00
000064  f0000000          DCB      0xf0,0x00,0x00,0x00

                          AREA ||area_number.16||, DATA, ALIGN=0

                          EXPORTAS ||area_number.16||, ||.data||
                  Data4TrAbsent_flag
000000  01                DCB      0x01

                          AREA ||area_number.17||, DATA, ALIGN=0

                          EXPORTAS ||area_number.17||, ||.data||
                  sch_buf
000000  00                DCB      0x00

                          AREA ||area_number.18||, DATA, ALIGN=2

                          EXPORTAS ||area_number.18||, ||.data||
                  uart1_IT_TX_flag
                          DCD      0x00000000

                          AREA ||area_number.19||, DATA, ALIGN=2

                          EXPORTAS ||area_number.19||, ||.data||
                  uart2_IT_TX_flag
                          DCD      0x00000000

                          AREA ||area_number.20||, DATA, ALIGN=2

                          EXPORTAS ||area_number.20||, ||.data||
                  j_pack
                          DCD      0x00000000

                          AREA ||area_number.21||, DATA, ALIGN=0

                          EXPORTAS ||area_number.21||, ||.data||
                  flag_clear
000000  00                DCB      0x00

                          AREA ||area_number.22||, DATA, ALIGN=2

                          EXPORTAS ||area_number.22||, ||.data||
                  ||nn||
                          DCD      0x00000000

                          AREA ||area_number.23||, DATA, ALIGN=0

                          EXPORTAS ||area_number.23||, ||.data||
                  sch_plis_ppi
000000  00                DCB      0x00

                          AREA ||area_number.24||, DATA, ALIGN=0

                          EXPORTAS ||area_number.24||, ||.data||
                  flag_test_sync
000000  00                DCB      0x00

                          AREA ||area_number.25||, DATA, ALIGN=0

                          EXPORTAS ||area_number.25||, ||.data||
                  sch_packet_UDP_reciv
000000  00                DCB      0x00

                          AREA ||area_number.26||, DATA, ALIGN=2

                          EXPORTAS ||area_number.26||, ||.data||
                  ||l1||
                          DCD      0x00000005

                          AREA ||area_number.27||, DATA, ALIGN=2

                          EXPORTAS ||area_number.27||, ||.data||
                  ||l2||
                          DCD      0x00000006

                          AREA ||area_number.28||, DATA, ALIGN=2

                          EXPORTAS ||area_number.28||, ||.data||
                  ||l3||
                          DCD      0x00000007

                          AREA ||area_number.29||, DATA, ALIGN=2

                          EXPORTAS ||area_number.29||, ||.data||
                  CurrentLed
                          DCD      0x00000000

                          AREA ||area_number.30||, DATA, ALIGN=2

                          EXPORTAS ||area_number.30||, ||.data||
                  i
                          DCD      0x00000000

                          AREA ||area_number.31||, DATA, ALIGN=1

                          EXPORTAS ||area_number.31||, ||.data||
                  flag_rsv
000000  0000              DCW      0x0000

                          AREA ||area_number.32||, DATA, ALIGN=0

                          EXPORTAS ||area_number.32||, ||.data||
                  Master_flag
000000  00                DCB      0x00

                          AREA ||area_number.33||, DATA, ALIGN=0

                          EXPORTAS ||area_number.33||, ||.data||
                  Process_code
000000  00                DCB      0x00

                          AREA ||area_number.34||, DATA, ALIGN=0

                          EXPORTAS ||area_number.34||, ||.data||
                  Test_f_mono
000000  00                DCB      0x00

                          AREA ||area_number.35||, DATA, ALIGN=2

                          EXPORTAS ||area_number.35||, ||.data||
                  sch_avariya
                          DCD      0x00000000

                          AREA ||area_number.36||, DATA, ALIGN=0

                          EXPORTAS ||area_number.36||, ||.data||
                  UDP_TCP_flag
000000  00                DCB      0x00

                          AREA ||area_number.37||, DATA, ALIGN=0

                          EXPORTAS ||area_number.37||, ||.data||
                  K615_indik
000000  00                DCB      0x00

                          AREA ||area_number.38||, DATA, ALIGN=0

                          EXPORTAS ||area_number.38||, ||.data||
                  K615_crc_sch
000000  00                DCB      0x00

                          AREA ||area_number.39||, DATA, ALIGN=0

                          EXPORTAS ||area_number.39||, ||.data||
                  K615_crc_sch2
000000  00                DCB      0x00

                          AREA ||area_number.40||, DATA, ALIGN=0

                          EXPORTAS ||area_number.40||, ||.data||
                  Error_ethernet_obmen
000000  00                DCB      0x00

                          AREA ||area_number.41||, DATA, ALIGN=0

                          EXPORTAS ||area_number.41||, ||.data||
                  flag_cikl_ON
000000  00                DCB      0x00

                          AREA ||area_number.42||, DATA, ALIGN=0

                          EXPORTAS ||area_number.42||, ||.data||
                  flag_Ethernet_packet_rcv
000000  00                DCB      0x00

                          AREA ||area_number.43||, DATA, ALIGN=2

                          EXPORTAS ||area_number.43||, ||.data||
                  sch_UDP_pakets
                          DCD      0x00000000

                          AREA ||area_number.44||, DATA, ALIGN=0

                          EXPORTAS ||area_number.44||, ||.data||
                  flag_process
000000  01                DCB      0x01

                          AREA ||area_number.45||, DATA, ALIGN=0

                          EXPORTAS ||area_number.45||, ||.data||
                  flag_event_K615_run
000000  00                DCB      0x00

                          AREA ||area_number.46||, DATA, ALIGN=2

                          EXPORTAS ||area_number.46||, ||.data||
                  delay_process
                          DCD      0x00000190

                          AREA ||area_number.47||, DATA, ALIGN=0

                          EXPORTAS ||area_number.47||, ||.data||
                  Pachka_START
000000  00                DCB      0x00

                          AREA ||area_number.48||, DATA, ALIGN=0

                          EXPORTAS ||area_number.48||, ||.data||
                  sync_flag
000000  00                DCB      0x00

                          AREA ||area_number.49||, DATA, ALIGN=0

                          EXPORTAS ||area_number.49||, ||.data||
                  sync_sch_flag
000000  03                DCB      0x03

                          AREA ||area_number.50||, DATA, ALIGN=0

                          EXPORTAS ||area_number.50||, ||.data||
                  sinc_type
000000  00                DCB      0x00

                          AREA ||area_number.51||, DATA, ALIGN=0

                          EXPORTAS ||area_number.51||, ||.data||
                  flag_MASTER_pachka
000000  00                DCB      0x00

                          AREA ||area_number.52||, DATA, ALIGN=2

                          EXPORTAS ||area_number.52||, ||.data||
                  TNC_number_run
                          DCD      0x00000000

                          AREA ||area_number.53||, DATA, ALIGN=0

                          EXPORTAS ||area_number.53||, ||.data||
                  flag_form_packet_SDRAM
000000  00                DCB      0x00

                          AREA ||area_number.54||, DATA, ALIGN=0

                          EXPORTAS ||area_number.54||, ||.data||
                  SYS_LIFE
000000  00                DCB      0x00

                          AREA ||area_number.55||, DATA, ALIGN=0

                          EXPORTAS ||area_number.55||, ||.data||
                  lsym1
000000  00                DCB      0x00

                          AREA ||area_number.56||, DATA, ALIGN=0

                          EXPORTAS ||area_number.56||, ||.data||
                  pack_ok1
000000  00                DCB      0x00

                          AREA ||area_number.57||, DATA, ALIGN=0

                          EXPORTAS ||area_number.57||, ||.data||
                  pack_sum1
000000  00                DCB      0x00

                          AREA ||area_number.58||, DATA, ALIGN=0

                          EXPORTAS ||area_number.58||, ||.data||
                  Qwant_K611
000000  00                DCB      0x00

                          AREA ||area_number.59||, DATA, ALIGN=0

                          EXPORTAS ||area_number.59||, ||.data||
                  Flag_zahvat_OK_K611
000000  00                DCB      0x00

                          AREA ||area_number.60||, DATA, ALIGN=0

                          EXPORTAS ||area_number.60||, ||.data||
                  Flag_signal_OK_K611
000000  00                DCB      0x00

                          AREA ||area_number.61||, DATA, ALIGN=0

                          EXPORTAS ||area_number.61||, ||.data||
                  PROCESS
000000  00                DCB      0x00

                          AREA ||area_number.62||, DATA, ALIGN=0

                          EXPORTAS ||area_number.62||, ||.data||
                  test1
000000  00                DCB      0x00

                          AREA ||area_number.63||, DATA, ALIGN=0

                          EXPORTAS ||area_number.63||, ||.data||
                  test2
000000  00                DCB      0x00

                          AREA ||area_number.64||, DATA, ALIGN=0

                          EXPORTAS ||area_number.64||, ||.data||
                  sys_life_k612
000000  00                DCB      0x00

                          AREA ||area_number.65||, DATA, ALIGN=0

                          EXPORTAS ||area_number.65||, ||.data||
                  sys_life_k613
000000  00                DCB      0x00

                          AREA ||area_number.66||, DATA, ALIGN=0

                          EXPORTAS ||area_number.66||, ||.data||
                  AVARIYA_flag
000000  00                DCB      0x00

                          AREA ||area_number.67||, DATA, ALIGN=0

                          EXPORTAS ||area_number.67||, ||.data||
                  flag_Ethernet_Terminal
000000  00                DCB      0x00

                          AREA ||area_number.68||, DATA, ALIGN=0

                          EXPORTAS ||area_number.68||, ||.data||
                  flag_PPI_sz1
000000  00                DCB      0x00

                          AREA ||area_number.69||, DATA, ALIGN=0

                          EXPORTAS ||area_number.69||, ||.data||
                  flag_PPI_sz2
000000  00                DCB      0x00

                          AREA ||area_number.70||, DATA, ALIGN=0

                          EXPORTAS ||area_number.70||, ||.data||
                  flag_PPI_sinc
000000  00                DCB      0x00

                          AREA ||area_number.71||, DATA, ALIGN=0

                          EXPORTAS ||area_number.71||, ||.data||
                  flag_contr_TNC_TNO
000000  00                DCB      0x00

                          AREA ||area_number.72||, DATA, ALIGN=0

                          EXPORTAS ||area_number.72||, ||.data||
                  flag_Packet_form
000000  00                DCB      0x00

                          AREA ||area_number.73||, DATA, ALIGN=0

                          EXPORTAS ||area_number.73||, ||.data||
                  flag_PPI_START
000000  00                DCB      0x00

                          AREA ||area_number.74||, DATA, ALIGN=0

                          EXPORTAS ||area_number.74||, ||.data||
                  label_PPI
000000  00                DCB      0x00

                          AREA ||area_number.75||, DATA, ALIGN=0

                          EXPORTAS ||area_number.75||, ||.data||
                  Test_PPI_flag1
000000  00                DCB      0x00

                          AREA ||area_number.76||, DATA, ALIGN=0

                          EXPORTAS ||area_number.76||, ||.data||
                  Test_PPI_flag2
000000  00                DCB      0x00

                          AREA ||area_number.77||, DATA, ALIGN=0

                          EXPORTAS ||area_number.77||, ||.data||
                  Test_PPI_flag3
000000  00                DCB      0x00

                          AREA ||area_number.78||, DATA, ALIGN=0

                          EXPORTAS ||area_number.78||, ||.data||
                  RESET_SINTEZ_flag
000000  00                DCB      0x00

                          AREA ||area_number.79||, DATA, ALIGN=2

                          EXPORTAS ||area_number.79||, ||.data||
                  time_TNO
                          DCD      0x00000000

                          AREA ||area_number.80||, DATA, ALIGN=2

                          EXPORTAS ||area_number.80||, ||.data||
                  time_TNC
                          DCD      0x00000000

                          AREA ||area_number.81||, DATA, ALIGN=2

                          EXPORTAS ||area_number.81||, ||.data||
                  time_TNO_min
                          DCD      0x00000000

                          AREA ||area_number.82||, DATA, ALIGN=2

                          EXPORTAS ||area_number.82||, ||.data||
                  time_TNC_min
                          DCD      0x00000000

                          AREA ||area_number.83||, DATA, ALIGN=2

                          EXPORTAS ||area_number.83||, ||.data||
                  time_TNO_max
                          DCD      0x00000000

                          AREA ||area_number.84||, DATA, ALIGN=2

                          EXPORTAS ||area_number.84||, ||.data||
                  time_TNC_max
                          DCD      0x00000000

                          AREA ||area_number.85||, DATA, ALIGN=0

                          EXPORTAS ||area_number.85||, ||.data||
                  flag_1HZ_sync
000000  00                DCB      0x00

                          AREA ||area_number.86||, DATA, ALIGN=0

                          EXPORTAS ||area_number.86||, ||.data||
                  flag_START_packa_SINTEZ
000000  00                DCB      0x00

                          AREA ||area_number.87||, DATA, ALIGN=2

                          EXPORTAS ||area_number.87||, ||.data||
                  text_lengh
                          DCD      0x00000000

                          AREA ||area_number.88||, DATA, ALIGN=0

                          EXPORTAS ||area_number.88||, ||.data||
                  ||ok||
                          DCDU     0x00000000
000004  00                DCB      0x00

                          AREA ||area_number.89||, DATA, ALIGN=2

                          EXPORTAS ||area_number.89||, ||.data||
                  led_tick
                          DCD      0x00000000

                          AREA ||area_number.90||, DATA, ALIGN=2

                          EXPORTAS ||area_number.90||, ||.data||
                  pointer1
                          DCD      0x00000000

                          AREA ||area_number.91||, DATA, ALIGN=2

                          EXPORTAS ||area_number.91||, ||.data||
                  adspChipVersion
                          DCD      0x00000000

                          AREA ||area_number.92||, DATA, ALIGN=2

                          EXPORTAS ||area_number.92||, ||.data||
                  ||tt||
                          DCD      0x00000000

                          AREA ||area_number.93||, DATA, ALIGN=2

                          EXPORTAS ||area_number.93||, ||.data||
                  tested
                          DCD      0x00000000

                          AREA ||area_number.94||, DATA, ALIGN=1

                          EXPORTAS ||area_number.94||, ||.data||
                  sch_uart
000000  0000              DCB      0x00,0x00

                          AREA ||area_number.95||, DATA, ALIGN=0

                          EXPORTAS ||area_number.95||, ||.data||
                  ||lk||
000000  00                DCB      0x00

                          AREA ||area_number.96||, DATA, ALIGN=2

                          EXPORTAS ||area_number.96||, ||.data||
                  Temp
                          DCD      0x00000000

                          AREA ||area_number.97||, DATA, ALIGN=0

                          EXPORTAS ||area_number.97||, ||.data||
                  k
000000  00                DCB      0x00

                          AREA ||area_number.98||, DATA, ALIGN=0

                          EXPORTAS ||area_number.98||, ||.data||
                  lsym
000000  00                DCB      0x00

                          AREA ||area_number.99||, DATA, ALIGN=0

                          EXPORTAS ||area_number.99||, ||.data||
                  ||sym||
000000  00                DCB      0x00

                          AREA ||area_number.100||, DATA, ALIGN=0

                          EXPORTAS ||area_number.100||, ||.data||
                  flag
000000  00                DCB      0x00

                          AREA ||area_number.101||, DATA, ALIGN=0

                          EXPORTAS ||area_number.101||, ||.data||
                  ||NB||
000000  00                DCB      0x00

                          AREA ||area_number.102||, DATA, ALIGN=0

                          EXPORTAS ||area_number.102||, ||.data||
                  data_in
000000  00                DCB      0x00

                          AREA ||area_number.103||, DATA, ALIGN=2

                          EXPORTAS ||area_number.103||, ||.data||
                  tick_wait
                          DCD      0x00000000

                          AREA ||area_number.104||, DATA, ALIGN=0

                          EXPORTAS ||area_number.104||, ||.data||
                  flag_pachka_sinhron
000000  00                DCB      0x00

                          AREA ||area_number.105||, DATA, ALIGN=0

                          EXPORTAS ||area_number.105||, ||.data||
                  flag_pachka_TXT
000000  00                DCB      0x00

                          AREA ||area_number.106||, DATA, ALIGN=0

                          EXPORTAS ||area_number.106||, ||.data||
                  flag_pachka_TXT2
000000  00                DCB      0x00

                          AREA ||area_number.107||, DATA, ALIGN=0

                          EXPORTAS ||area_number.107||, ||.data||
                  flag_K615_event
000000  00                DCB      0x00

                          AREA ||area_number.108||, DATA, ALIGN=0

                          EXPORTAS ||area_number.108||, ||.data||
                  tick_us
000000  00                DCB      0x00

                          AREA ||area_number.109||, DATA, ALIGN=2

                          EXPORTAS ||area_number.109||, ||.data||
                  tick_process_K615
                          DCD      0x00000000

                          AREA ||area_number.110||, DATA, ALIGN=2

                          EXPORTAS ||area_number.110||, ||.data||
                  tick_process_K612
                          DCD      0x00000000

                          AREA ||area_number.111||, DATA, ALIGN=2

                          EXPORTAS ||area_number.111||, ||.data||
                  tick_process_K613
                          DCD      0x00000000

                          AREA ||area_number.112||, DATA, ALIGN=2

                          EXPORTAS ||area_number.112||, ||.data||
                  tick_process_OK
                          DCD      0x00000000

                          AREA ||area_number.113||, DATA, ALIGN=2

                          EXPORTAS ||area_number.113||, ||.data||
                  tick_TCP
                          DCD      0x00000000

                          AREA ||area_number.114||, DATA, ALIGN=2

                          EXPORTAS ||area_number.114||, ||.data||
                  tick_UDP
                          DCD      0x00000000

                          AREA ||area_number.115||, DATA, ALIGN=0

                          EXPORTAS ||area_number.115||, ||.data||
                  flag_Ethernet
000000  00                DCB      0x00

;*** Start embedded assembler ***

#line 1 "main.c"
	AREA ||.rev16_text||, CODE
	THUMB
	EXPORT |__asm___6_main_c_TxIdx____REV16|
#line 129 "C:\\Keil_v5\\ARM\\PACK\\Keil\\MDR1986BExx\\1.4\\Libraries\\CMSIS\\CM3\\CoreSupport\\core_cmInstr.h"
|__asm___6_main_c_TxIdx____REV16| PROC
#line 130

 rev16 r0, r0
 bx lr
	ENDP
	AREA ||.revsh_text||, CODE
	THUMB
	EXPORT |__asm___6_main_c_TxIdx____REVSH|
#line 144
|__asm___6_main_c_TxIdx____REVSH| PROC
#line 145

 revsh r0, r0
 bx lr
	ENDP

;*** End   embedded assembler ***

                  __ARM_use_no_argv EQU 0
